

Microchip MPLAB XC8 Assembler V2.41 build 20230208172133 
                                                                                               Thu Oct 05 18:09:33 2023

Microchip MPLAB XC8 C Compiler v2.41 (Free license) build 20230208172133 Og1 
     1                           	processor	18F46K20
     2                           	fnconf	rparam,??,?,0
     3                           	pagewidth 120
     4                           	opt	flic
     5                           	psect	smallconst,global,reloc=2,class=SMALLCONST,delta=1,noexec
     6                           	psect	nvCOMRAM,global,class=COMRAM,space=1,delta=1,lowdata,noexec
     7                           	psect	cinit,global,reloc=2,class=CODE,delta=1
     8                           	psect	bssCOMRAM,global,class=COMRAM,space=1,delta=1,lowdata,noexec
     9                           	psect	bssBANK0,global,class=BANK0,space=1,delta=1,lowdata,noexec
    10                           	psect	cstackBANK0,global,class=BANK0,space=1,delta=1,lowdata,noexec
    11                           	psect	cstackCOMRAM,global,class=COMRAM,space=1,delta=1,lowdata,noexec
    12                           	psect	text0,global,reloc=2,class=CODE,delta=1
    13                           	psect	text1,global,reloc=2,class=CODE,delta=1
    14                           	psect	text2,global,reloc=2,class=CODE,delta=1
    15                           	psect	text3,global,reloc=2,class=CODE,delta=1
    16                           	psect	text4,global,reloc=2,class=CODE,delta=1
    17                           	psect	text5,global,reloc=2,class=CODE,delta=1
    18                           	psect	text6,global,reloc=2,class=CODE,delta=1
    19                           	psect	text7,global,reloc=2,class=CODE,delta=1
    20                           	psect	text8,global,reloc=2,class=CODE,delta=1
    21                           	psect	text9,global,reloc=2,class=CODE,delta=1
    22                           	psect	text10,global,reloc=2,class=CODE,delta=1
    23                           	psect	text11,global,reloc=2,class=CODE,delta=1
    24                           	psect	text12,global,reloc=2,class=CODE,delta=1
    25                           	psect	text13,global,reloc=2,class=CODE,delta=1
    26                           	psect	text14,global,reloc=2,class=CODE,delta=1
    27                           	psect	text15,global,reloc=2,class=CODE,delta=1
    28                           	psect	text16,global,reloc=2,class=CODE,delta=1
    29                           	psect	text17,global,reloc=2,class=CODE,delta=1
    30                           	psect	text18,global,reloc=2,class=CODE,delta=1
    31                           	psect	text19,global,reloc=2,class=CODE,delta=1
    32                           	psect	text20,global,reloc=2,class=CODE,delta=1
    33                           	psect	text21,global,reloc=2,class=CODE,delta=1
    34                           	psect	text22,global,reloc=2,class=CODE,delta=1
    35                           	psect	text23,global,reloc=2,class=CODE,delta=1
    36                           	psect	text24,global,reloc=2,class=CODE,delta=1
    37                           	psect	text25,global,reloc=2,class=CODE,delta=1,inline
    38                           	psect	text26,global,reloc=2,class=CODE,delta=1,inline
    39                           	psect	text27,global,reloc=2,class=CODE,delta=1
    40                           	psect	text28,global,reloc=2,class=CODE,delta=1
    41                           	psect	text29,global,reloc=2,class=CODE,delta=1,inline
    42                           	psect	text30,global,reloc=2,class=CODE,delta=1
    43                           	psect	text31,global,reloc=2,class=CODE,delta=1,inline
    44                           	psect	text32,global,reloc=2,class=CODE,delta=1,inline
    45                           	psect	text33,global,reloc=2,class=CODE,delta=1,inline
    46                           	psect	intcode,global,reloc=2,class=CODE,delta=1
    47                           	psect	text35,global,reloc=2,class=CODE,delta=1
    48                           	psect	text36,global,reloc=2,class=CODE,delta=1,inline
    49                           	psect	text37,global,reloc=2,class=CODE,delta=1,inline
    50                           	psect	text38,global,reloc=2,class=CODE,delta=1
    51                           	psect	text39,global,reloc=2,class=CODE,delta=1
    52                           	psect	text40,global,reloc=2,class=CODE,delta=1
    53                           	psect	text41,global,reloc=2,class=CODE,delta=1
    54                           	psect	text42,global,reloc=2,class=CODE,delta=1
    55                           	psect	text43,global,reloc=2,class=CODE,delta=1
    56                           	psect	text44,global,reloc=2,class=CODE,delta=1
    57                           	psect	text45,global,reloc=2,class=CODE,delta=1
    58                           	psect	text46,global,reloc=2,class=CODE,delta=1
    59                           	psect	text47,global,reloc=2,class=CODE,delta=1
    60                           	psect	text48,global,reloc=2,class=CODE,delta=1
    61                           	psect	text49,global,reloc=2,class=CODE,delta=1
    62                           	psect	text50,global,reloc=2,class=CODE,delta=1
    63                           	psect	text51,global,reloc=2,class=CODE,delta=1
    64                           	psect	text52,global,reloc=2,class=CODE,delta=1
    65                           	psect	text53,global,reloc=2,class=CODE,delta=1
    66                           	psect	text54,global,reloc=2,class=CODE,delta=1,inline
    67                           	psect	text55,global,reloc=2,class=CODE,delta=1,inline
    68                           	psect	text56,global,reloc=2,class=CODE,delta=1,inline
    69                           	psect	text57,global,reloc=2,class=CODE,delta=1,inline
    70                           	psect	text58,global,reloc=2,class=CODE,delta=1,inline
    71                           	psect	text59,global,reloc=2,class=CODE,delta=1,inline
    72                           	psect	text60,global,reloc=2,class=CODE,delta=1,inline
    73                           	psect	text61,global,reloc=2,class=CODE,delta=1
    74                           	psect	text62,global,reloc=2,class=CODE,delta=1
    75                           	psect	text63,global,reloc=2,class=CODE,delta=1
    76                           	psect	text64,global,reloc=2,class=CODE,delta=1
    77                           	psect	text65,global,reloc=2,class=CODE,delta=1
    78                           	psect	text66,global,reloc=2,class=CODE,delta=1
    79                           	psect	text67,global,reloc=2,class=CODE,delta=1
    80                           	psect	text68,global,reloc=2,class=CODE,delta=1
    81                           	psect	text69,global,reloc=2,class=CODE,delta=1
    82                           	psect	text70,global,reloc=2,class=CODE,delta=1
    83                           	psect	text71,global,reloc=2,class=CODE,delta=1,inline
    84                           	psect	text72,global,reloc=2,class=CODE,delta=1,inline
    85                           	psect	intsave_regs,global,class=BIGRAM,space=1,delta=1,noexec
    86                           	psect	text73,global,reloc=2,class=CODE,delta=1,inline
    87                           	psect	rparam,global,class=COMRAM,space=1,delta=1,noexec
    88                           	psect	temp,global,ovrld,common,class=COMRAM,space=1,delta=1
    89                           	psect	config,global,abs,ovrld,class=CONFIG,space=4,delta=1,noexec
    90   000000                     
    91                           ; Generated 09/02/2023 GMT
    92                           ; 
    93                           ; Copyright © 2023, Microchip Technology Inc. and its subsidiaries ("Microchip")
    94                           ; All rights reserved.
    95                           ; 
    96                           ; This software is developed by Microchip Technology Inc. and its subsidiaries ("Microch
      +                          ip").
    97                           ; 
    98                           ; Redistribution and use in source and binary forms, with or without modification, are
    99                           ; permitted provided that the following conditions are met:
   100                           ; 
   101                           ;     1. Redistributions of source code must retain the above copyright notice, this lis
      +                          t of
   102                           ;        conditions and the following disclaimer.
   103                           ; 
   104                           ;     2. Redistributions in binary form must reproduce the above copyright notice, this 
      +                          list
   105                           ;        of conditions and the following disclaimer in the documentation and/or other
   106                           ;        materials provided with the distribution. Publication is not required when
   107                           ;        this file is used in an embedded application.
   108                           ; 
   109                           ;     3. Microchip's name may not be used to endorse or promote products derived from th
      +                          is
   110                           ;        software without specific prior written permission.
   111                           ; 
   112                           ; THIS SOFTWARE IS PROVIDED BY MICROCHIP "AS IS" AND ANY EXPRESS OR IMPLIED WARRANTIES,
   113                           ; INCLUDING, BUT NOT LIMITED TO, THE IMPLIED WARRANTIES OF MERCHANTABILITY AND FITNESS F
      +                          OR
   114                           ; PURPOSE ARE DISCLAIMED.  IN NO EVENT SHALL MICROCHIP BE LIABLE FOR ANY DIRECT, INDIREC
      +                          T,
   115                           ; INCIDENTAL, SPECIAL, EXEMPLARY, OR CONSEQUENTIAL DAMAGES (INCLUDING BUT NOT LIMITED TO
   116                           ; PROCUREMENT OF SUBSTITUTE GOODS OR SERVICES; LOSS OF USE, DATA OR PROFITS; OR BUSINESS
   117                           ; INTERRUPTION) HOWSOEVER CAUSED AND ON ANY THEORY OF LIABILITY, WHETHER IN CONTRACT, ST
      +                          RICT
   118                           ; LIABILITY, OR TORT (INCLUDING NEGLIGENCE OR OTHERWISE) ARISING IN ANY WAY OUT OF THE U
      +                          SE OF
   119                           ; THIS SOFTWARE, EVEN IF ADVISED OF THE POSSIBILITY OF SUCH DAMAGE.
   120                           ; 
   121                           ; 
   122                           ; Code-generator required, PIC18F46K20 Definitions
   123                           ; 
   124                           ; SFR Addresses
   125   000000                     
   126 ;; Function _EUSART_DefaultFramingErrorHandler is unused but had its address taken
   127   000000                     
   128 ;; Function _EUSART_DefaultOverrunErrorHandler is unused but had its address taken
   129   000000                     
   130 ;; Function _EUSART_DefaultErrorHandler is unused but had its address taken
   131   000000                     
   132                           	psect	smallconst
   133   001000                     __psmallconst:
   134                           	callstack 0
   135   001000  00                 	db	0
   136   001001                     _i2c_fsmStateTable:
   137                           	callstack 0
   138   001001  CA                 	db	low _I2C_DO_IDLE
   139   001002  1A                 	db	high _I2C_DO_IDLE
   140   001003  A2                 	db	low _I2C_DO_SEND_ADR_READ
   141   001004  1A                 	db	high _I2C_DO_SEND_ADR_READ
   142   001005  92                 	db	low _I2C_DO_SEND_ADR_WRITE
   143   001006  1A                 	db	high _I2C_DO_SEND_ADR_WRITE
   144   001007  00                 	db	low _I2C_DO_TX
   145   001008  11                 	db	high _I2C_DO_TX
   146   001009  C4                 	db	low _I2C_DO_RX
   147   00100A  11                 	db	high _I2C_DO_RX
   148   00100B  BE                 	db	low _I2C_DO_RCEN
   149   00100C  1A                 	db	high _I2C_DO_RCEN
   150   00100D  A2                 	db	low _I2C_DO_TX_EMPTY
   151   00100E  13                 	db	high _I2C_DO_TX_EMPTY
   152   00100F  48                 	db	low _I2C_DO_SEND_RESTART_READ
   153   001010  1B                 	db	high _I2C_DO_SEND_RESTART_READ
   154   001011  40                 	db	low _I2C_DO_SEND_RESTART_WRITE
   155   001012  1B                 	db	high _I2C_DO_SEND_RESTART_WRITE
   156   001013  38                 	db	low _I2C_DO_SEND_RESTART
   157   001014  1B                 	db	high _I2C_DO_SEND_RESTART
   158   001015  30                 	db	low _I2C_DO_SEND_STOP
   159   001016  1B                 	db	high _I2C_DO_SEND_STOP
   160   001017  28                 	db	low _I2C_DO_RX_ACK
   161   001018  1B                 	db	high _I2C_DO_RX_ACK
   162   001019  20                 	db	low _I2C_DO_RX_NACK_STOP
   163   00101A  1B                 	db	high _I2C_DO_RX_NACK_STOP
   164   00101B  18                 	db	low _I2C_DO_RX_NACK_RESTART
   165   00101C  1B                 	db	high _I2C_DO_RX_NACK_RESTART
   166   00101D  B2                 	db	low _I2C_DO_RESET
   167   00101E  1A                 	db	high _I2C_DO_RESET
   168   00101F  5C                 	db	low _I2C_DO_ADDRESS_NACK
   169   001020  16                 	db	high _I2C_DO_ADDRESS_NACK
   170   001021                     __end_of_i2c_fsmStateTable:
   171                           	callstack 0
   172   000000                     _PIE2bits	set	4000
   173   000000                     _IPR1bits	set	3999
   174   000000                     _TXREG	set	4013
   175   000000                     _RCREG	set	4014
   176   000000                     _SPBRG	set	4015
   177   000000                     _TXSTA	set	4012
   178   000000                     _RCSTA	set	4011
   179   000000                     _BAUDCON	set	4024
   180   000000                     _EEDATA	set	4008
   181   000000                     _EEADR	set	4009
   182   000000                     _EEADRH	set	4010
   183   000000                     _EECON2	set	4007
   184   000000                     _PIR1bits	set	3998
   185   000000                     _TRISD	set	3989
   186   000000                     _TRISC	set	3988
   187   000000                     _TRISB	set	3987
   188   000000                     _LATC	set	3979
   189   000000                     _LATB	set	3978
   190   001021                     STR_2:
   191   001021  53                 	db	83	;'S'
   192   001022  79                 	db	121	;'y'
   193   001023  73                 	db	115	;'s'
   194   001024  74                 	db	116	;'t'
   195   001025  65                 	db	101	;'e'
   196   001026  6D                 	db	109	;'m'
   197   001027  20                 	db	32
   198   001028  53                 	db	83	;'S'
   199   001029  74                 	db	116	;'t'
   200   00102A  61                 	db	97	;'a'
   201   00102B  72                 	db	114	;'r'
   202   00102C  74                 	db	116	;'t'
   203   00102D  65                 	db	101	;'e'
   204   00102E  64                 	db	100	;'d'
   205   00102F  20                 	db	32
   206   001030  0D                 	db	13
   207   001031  00                 	db	0
   208   001032                     STR_1:
   209   001032  44                 	db	68	;'D'
   210   001033  61                 	db	97	;'a'
   211   001034  74                 	db	116	;'t'
   212   001035  65                 	db	101	;'e'
   213   001036  20                 	db	32
   214   001037  3A                 	db	58	;':'
   215   001038  20                 	db	32
   216   001039  00                 	db	0
   217   00103A  00                 	db	0	; dummy byte at the end
   218   000000                     
   219                           	psect	nvCOMRAM
   220   000040                     __pnvCOMRAM:
   221                           	callstack 0
   222   000040                     _EUSART_ErrorHandler:
   223                           	callstack 0
   224   000040                     	ds	2
   225   000042                     _EUSART_OverrunErrorHandler:
   226                           	callstack 0
   227   000042                     	ds	2
   228   000044                     _EUSART_FramingErrorHandler:
   229                           	callstack 0
   230   000044                     	ds	2
   231   000000                     _RCSTAbits	set	4011
   232   000000                     _TXSTAbits	set	4012
   233   000000                     _SSPSTATbits	set	4039
   234   000000                     _SSPCON2bits	set	4037
   235   000000                     _SSPCON1bits	set	4038
   236   000000                     _WPUB	set	3964
   237   000000                     _ANSEL	set	3966
   238   000000                     _LATA	set	3977
   239   000000                     _LATD	set	3980
   240   000000                     _LATE	set	3981
   241   000000                     _TRISA	set	3986
   242   000000                     _TRISE	set	3990
   243   000000                     _OSCTUNE	set	3995
   244   000000                     _PIE1bits	set	3997
   245   000000                     _PIR2bits	set	4001
   246   000000                     _SSPCON2	set	4037
   247   000000                     _SSPCON1	set	4038
   248   000000                     _SSPSTAT	set	4039
   249   000000                     _INTCON2bits	set	4081
   250   000000                     _ANSELH	set	3967
   251   000000                     _TABLAT	set	4085
   252   000000                     _TBLPTRL	set	4086
   253   000000                     _TBLPTRH	set	4087
   254   000000                     _TBLPTRU	set	4088
   255   000000                     _INTCONbits	set	4082
   256   000000                     _RCONbits	set	4048
   257   000000                     _OSCCON	set	4051
   258   000000                     _SSPBUF	set	4041
   259   000000                     _SSPADD	set	4040
   260   000000                     _IPR2bits	set	4002
   261   000000                     _EECON1bits	set	4006
   262   000000                     _SPBRGH	set	4016
   263                           
   264                           ; #config settings
   265                           
   266                           	psect	cinit
   267   00197C                     __pcinit:
   268                           	callstack 0
   269   00197C                     start_initialization:
   270                           	callstack 0
   271   00197C                     __initialization:
   272                           	callstack 0
   273                           
   274                           ; Clear objects allocated to BANK0 (36 bytes)
   275   00197C  EE00  F060         	lfsr	0,__pbssBANK0
   276   001980  0E24               	movlw	36
   277   001982                     clear_0:
   278   001982  6AEE               	clrf	postinc0,c
   279   001984  06E8               	decf	wreg,f,c
   280   001986  E1FD               	bnz	clear_0
   281                           
   282                           ; Clear objects allocated to COMRAM (20 bytes)
   283   001988  EE00  F02C         	lfsr	0,__pbssCOMRAM
   284   00198C  0E14               	movlw	20
   285   00198E                     clear_1:
   286   00198E  6AEE               	clrf	postinc0,c
   287   001990  06E8               	decf	wreg,f,c
   288   001992  E1FD               	bnz	clear_1
   289   001994                     end_of_initialization:
   290                           	callstack 0
   291   001994                     __end_of__initialization:
   292                           	callstack 0
   293   001994  9046               	bcf	int$flags,0,c	;clear compiler interrupt flag (level 1)
   294   001996  9246               	bcf	int$flags,1,c	;clear compiler interrupt flag (level 2)
   295   001998  0100               	movlb	0
   296   00199A  EF1E  F008         	goto	_main	;jump to C main() function
   297                           
   298                           	psect	bssCOMRAM
   299   00002C                     __pbssCOMRAM:
   300                           	callstack 0
   301   00002C                     _Time_Clock_Date:
   302                           	callstack 0
   303   00002C                     	ds	6
   304   000032                     _MSSP_InterruptHandler:
   305                           	callstack 0
   306   000032                     	ds	2
   307   000034                     _val2:
   308                           	callstack 0
   309   000034                     	ds	1
   310   000035                     _val1:
   311                           	callstack 0
   312   000035                     	ds	1
   313   000036                     _Temp:
   314                           	callstack 0
   315   000036                     	ds	1
   316   000037                     _eusartRxLastError:
   317                           	callstack 0
   318   000037                     	ds	1
   319   000038                     _Date_pack:
   320                           	callstack 0
   321   000038                     	ds	8
   322                           
   323                           	psect	bssBANK0
   324   000060                     __pbssBANK0:
   325                           	callstack 0
   326   000060                     _I2C_Status:
   327                           	callstack 0
   328   000060                     	ds	36
   329                           
   330                           	psect	cstackBANK0
   331   000084                     __pcstackBANK0:
   332                           	callstack 0
   333   000084                     ??_main:
   334                           
   335                           ; 1 bytes @ 0x0
   336   000084                     	ds	2
   337                           
   338                           	psect	cstackCOMRAM
   339   000001                     __pcstackCOMRAM:
   340                           	callstack 0
   341   000001                     I2C_MasterSendTxData@data:
   342                           	callstack 0
   343   000001                     i2I2C_SetBuffer@buffer:
   344                           	callstack 0
   345   000001                     i2I2C_SetCallback@cb:
   346                           	callstack 0
   347                           
   348                           ; 2 bytes @ 0x0
   349   000001                     	ds	1
   350   000002                     
   351                           ; 1 bytes @ 0x1
   352   000002                     	ds	1
   353   000003                     i2I2C_SetBuffer@bufferSize:
   354                           	callstack 0
   355   000003                     i2I2C_SetCallback@ptr:
   356                           	callstack 0
   357                           
   358                           ; 2 bytes @ 0x2
   359   000003                     	ds	2
   360   000005                     i2I2C_SetCallback@idx:
   361                           	callstack 0
   362                           
   363                           ; 1 bytes @ 0x4
   364   000005                     	ds	1
   365   000006                     i2I2C_SetDataCompleteCallback@cb:
   366                           	callstack 0
   367                           
   368                           ; 2 bytes @ 0x5
   369   000006                     	ds	2
   370   000008                     i2I2C_SetDataCompleteCallback@ptr:
   371                           	callstack 0
   372                           
   373                           ; 2 bytes @ 0x7
   374   000008                     	ds	2
   375   00000A                     rd1RegCompleteHandler@ptr:
   376                           	callstack 0
   377   00000A                     rd2RegCompleteHandler@ptr:
   378                           	callstack 0
   379   00000A                     wr1RegCompleteHandler@ptr:
   380                           	callstack 0
   381   00000A                     wr2RegCompleteHandler@ptr:
   382                           	callstack 0
   383   00000A                     rdBlkRegCompleteHandler@ptr:
   384                           	callstack 0
   385   00000A                     I2C_CallbackReturnReset@funPtr:
   386                           	callstack 0
   387                           
   388                           ; 2 bytes @ 0x9
   389   00000A                     	ds	2
   390   00000C                     ??_I2C_DO_TX:
   391   00000C                     ??_I2C_DO_RX:
   392   00000C                     ??_I2C_DO_TX_EMPTY:
   393   00000C                     ??_I2C_DO_ADDRESS_NACK:
   394   00000C                     
   395                           ; 1 bytes @ 0xB
   396   00000C                     	ds	2
   397   00000E                     ??_I2C_MasterFsm:
   398                           
   399                           ; 1 bytes @ 0xD
   400   00000E                     	ds	2
   401   000010                     ??_INTERRUPT_InterruptManagerHigh:
   402                           
   403                           ; 1 bytes @ 0xF
   404   000010                     	ds	10
   405   00001A                     I2C_Close@returnValue:
   406                           	callstack 0
   407   00001A                     I2C_MasterOperation@read:
   408                           	callstack 0
   409   00001A                     EUSART_Write@txData:
   410                           	callstack 0
   411   00001A                     I2C_SetBuffer@buffer:
   412                           	callstack 0
   413   00001A                     I2C_SetInterruptHandler@InterruptHandler:
   414                           	callstack 0
   415   00001A                     I2C_SetCallback@cb:
   416                           	callstack 0
   417   00001A                     EUSART_SetFramingErrorHandler@interruptHandler:
   418                           	callstack 0
   419   00001A                     EUSART_SetOverrunErrorHandler@interruptHandler:
   420                           	callstack 0
   421   00001A                     EUSART_SetErrorHandler@interruptHandler:
   422                           	callstack 0
   423                           
   424                           ; 2 bytes @ 0x19
   425   00001A                     	ds	1
   426   00001B                     I2C_MasterOperation@returnValue:
   427                           	callstack 0
   428   00001B                     UART_SEND_STRING@string:
   429                           	callstack 0
   430                           
   431                           ; 2 bytes @ 0x1A
   432   00001B                     	ds	1
   433   00001C                     I2C_Open@address:
   434                           	callstack 0
   435   00001C                     I2C_SetBuffer@bufferSize:
   436                           	callstack 0
   437   00001C                     I2C_SetCallback@ptr:
   438                           	callstack 0
   439                           
   440                           ; 2 bytes @ 0x1B
   441   00001C                     	ds	1
   442   00001D                     UART_SEND_STRING@sting_lenght:
   443                           	callstack 0
   444   00001D                     I2C_Open@returnValue:
   445                           	callstack 0
   446                           
   447                           ; 1 bytes @ 0x1C
   448   00001D                     	ds	1
   449   00001E                     UART_SEND_STRING@l_sting_lenght:
   450                           	callstack 0
   451   00001E                     I2C_SetCallback@idx:
   452                           	callstack 0
   453                           
   454                           ; 1 bytes @ 0x1D
   455   00001E                     	ds	1
   456   00001F                     I2C_SetDataCompleteCallback@cb:
   457                           	callstack 0
   458   00001F                     I2C_SetAddressNackCallback@cb:
   459                           	callstack 0
   460                           
   461                           ; 2 bytes @ 0x1E
   462   00001F                     	ds	2
   463   000021                     I2C_SetDataCompleteCallback@ptr:
   464                           	callstack 0
   465   000021                     I2C_SetAddressNackCallback@ptr:
   466                           	callstack 0
   467                           
   468                           ; 2 bytes @ 0x20
   469   000021                     	ds	2
   470   000023                     I2C_Read1ByteRegister@reg:
   471                           	callstack 0
   472   000023                     I2C_Write1ByteRegister@reg:
   473                           	callstack 0
   474                           
   475                           ; 1 bytes @ 0x22
   476   000023                     	ds	1
   477   000024                     I2C_Read1ByteRegister@address:
   478                           	callstack 0
   479   000024                     I2C_Write1ByteRegister@data:
   480                           	callstack 0
   481                           
   482                           ; 1 bytes @ 0x23
   483   000024                     	ds	1
   484   000025                     I2C_Read1ByteRegister@returnValue:
   485                           	callstack 0
   486   000025                     I2C_Write1ByteRegister@address:
   487                           	callstack 0
   488                           
   489                           ; 1 bytes @ 0x24
   490   000025                     	ds	1
   491   000026                     ?_RealTimeClock_Get_Date_Time:
   492                           	callstack 0
   493   000026                     EEPROM_24C02C_Write_Byte@Byte_Add:
   494                           	callstack 0
   495   000026                     EEPROM_24C02C_Read_Byte@Byte_Add:
   496                           	callstack 0
   497   000026                     Temp_Sensor_TC74_ReadValue@TC74_Add:
   498                           	callstack 0
   499                           
   500                           ; 1 bytes @ 0x25
   501   000026                     	ds	1
   502   000027                     EEPROM_24C02C_Write_Byte@data:
   503                           	callstack 0
   504   000027                     EEPROM_24C02C_Read_Byte@EEPROM_Add:
   505                           	callstack 0
   506   000027                     Temp_Sensor_TC74_ReadValue@TempVAl:
   507                           	callstack 0
   508                           
   509                           ; 1 bytes @ 0x26
   510   000027                     	ds	1
   511   000028                     EEPROM_24C02C_Write_Byte@EEPROM_Add:
   512                           	callstack 0
   513   000028                     EEPROM_24C02C_Read_Byte@RetVal:
   514                           	callstack 0
   515                           
   516                           ; 1 bytes @ 0x27
   517   000028                     	ds	4
   518   00002C                     
   519                           ; 1 bytes @ 0x2B
   520 ;;
   521 ;;Main: autosize = 0, tempsize = 2, incstack = 0, save=0
   522 ;;
   523 ;; *************** function _main *****************
   524 ;; Defined at:
   525 ;;		line 57 in file "main.c"
   526 ;; Parameters:    Size  Location     Type
   527 ;;		None
   528 ;; Auto vars:     Size  Location     Type
   529 ;;  Time_Clock_D    6    0        struct .
   530 ;; Return value:  Size  Location     Type
   531 ;;                  1    wreg      void 
   532 ;; Registers used:
   533 ;;		wreg, fsr0l, fsr0h, fsr2l, fsr2h, status,2, status,0, tblptrl, tblptrh, tblptru, prodl, prodh, cstack
   534 ;; Tracked objects:
   535 ;;		On entry : 0/0
   536 ;;		On exit  : 0/0
   537 ;;		Unchanged: 0/0
   538 ;; Data sizes:     COMRAM   BANK0   BANK1   BANK2   BANK3   BANK4   BANK5   BANK6   BANK7   BANK8   BANK9  BANK10  BANK1
      +1  BANK12  BANK13  BANK14  BANK15
   539 ;;      Params:         0       0       0       0       0       0       0       0       0       0       0       0       
      +0       0       0       0       0
   540 ;;      Locals:         0       0       0       0       0       0       0       0       0       0       0       0       
      +0       0       0       0       0
   541 ;;      Temps:          0       2       0       0       0       0       0       0       0       0       0       0       
      +0       0       0       0       0
   542 ;;      Totals:         0       2       0       0       0       0       0       0       0       0       0       0       
      +0       0       0       0       0
   543 ;;Total ram usage:        2 bytes
   544 ;; Hardware stack levels required when called: 12
   545 ;; This function calls:
   546 ;;		_EEPROM_24C02C_Read_Byte
   547 ;;		_EEPROM_24C02C_Write_Byte
   548 ;;		_I2C_Write1ByteRegister
   549 ;;		_RealTimeClock_Get_Date_Time
   550 ;;		_SYSTEM_Initialize
   551 ;;		_Send_Date_UART
   552 ;;		_Temp_Sensor_TC74_ReadValue
   553 ;;		_UART_SEND_STRING
   554 ;; This function is called by:
   555 ;;		Startup code after reset
   556 ;; This function uses a non-reentrant model
   557 ;;
   558                           
   559                           	psect	text0
   560   00103C                     __ptext0:
   561                           	callstack 0
   562   00103C                     _main:
   563                           	callstack 19
   564   00103C                     
   565                           ;main.c: 60:     RealTimeClockDS1307_t Time_Clock_Date;;main.c: 62:     SYSTEM_Initializ
      +                          e();
   566   00103C  EC0F  F00D         	call	_SYSTEM_Initialize	;wreg free
   567   001040                     
   568                           ;main.c: 69:     (INTCONbits.GIEH = 1);
   569   001040  8EF2               	bsf	242,7,c	;volatile
   570   001042                     
   571                           ;main.c: 72:     (INTCONbits.GIEL = 1);
   572   001042  8CF2               	bsf	242,6,c	;volatile
   573   001044                     
   574                           ;main.c: 81:     (INTCONbits.PEIE = 1);
   575   001044  8CF2               	bsf	242,6,c	;volatile
   576   001046                     
   577                           ;main.c: 85:     UART_SEND_STRING("System Started \r",16);
   578   001046  0E21               	movlw	low STR_2
   579   001048  6E1B               	movwf	UART_SEND_STRING@string^0,c
   580   00104A  0E10               	movlw	high STR_2
   581   00104C  6E1C               	movwf	(UART_SEND_STRING@string+1)^0,c
   582   00104E  0E10               	movlw	16
   583   001050  6E1D               	movwf	UART_SEND_STRING@sting_lenght^0,c
   584   001052  EC8F  F00B         	call	_UART_SEND_STRING	;wreg free
   585   001056                     
   586                           ;main.c: 86:     EEPROM_24C02C_Write_Byte(0x53,0x00,5);
   587   001056  0E00               	movlw	0
   588   001058  6E26               	movwf	EEPROM_24C02C_Write_Byte@Byte_Add^0,c
   589   00105A  0E05               	movlw	5
   590   00105C  6E27               	movwf	EEPROM_24C02C_Write_Byte@data^0,c
   591   00105E  0E53               	movlw	83
   592   001060  EC37  F00D         	call	_EEPROM_24C02C_Write_Byte
   593   001064                     
   594                           ;main.c: 87:     EEPROM_24C02C_Write_Byte(0x51,0x00,6);
   595   001064  0E00               	movlw	0
   596   001066  6E26               	movwf	EEPROM_24C02C_Write_Byte@Byte_Add^0,c
   597   001068  0E06               	movlw	6
   598   00106A  6E27               	movwf	EEPROM_24C02C_Write_Byte@data^0,c
   599   00106C  0E51               	movlw	81
   600   00106E  EC37  F00D         	call	_EEPROM_24C02C_Write_Byte
   601   001072                     
   602                           ;main.c: 88:     _delay((unsigned long)((300)*(16000000/4000.0)));
   603   001072  0E07               	movlw	7
   604   001074  0100               	movlb	0	; () banked
   605   001076  6F85               	movwf	(??_main+1)& (0+255),b
   606   001078  0E17               	movlw	23
   607   00107A  6F84               	movwf	??_main& (0+255),b
   608   00107C  0E6A               	movlw	106
   609   00107E                     u1067:
   610   00107E  2EE8               	decfsz	wreg,f,c
   611   001080  D7FE               	bra	u1067
   612   001082  2F84               	decfsz	??_main& (0+255),f,b
   613   001084  D7FC               	bra	u1067
   614   001086  2F85               	decfsz	(??_main+1)& (0+255),f,b
   615   001088  D7FA               	bra	u1067
   616   00108A  F000               	nop	
   617   00108C                     
   618                           ;main.c: 89:     val1=EEPROM_24C02C_Read_Byte(0x53,0x00);
   619   00108C  0E00               	movlw	0
   620   00108E  6E26               	movwf	EEPROM_24C02C_Read_Byte@Byte_Add^0,c
   621   001090  0E53               	movlw	83
   622   001092  EC40  F00D         	call	_EEPROM_24C02C_Read_Byte
   623   001096  6E35               	movwf	_val1^0,c
   624   001098                     
   625                           ;main.c: 90:     _delay((unsigned long)((300)*(16000000/4000.0)));
   626   001098  0E07               	movlw	7
   627   00109A  0100               	movlb	0	; () banked
   628   00109C  6F85               	movwf	(??_main+1)& (0+255),b
   629   00109E  0E17               	movlw	23
   630   0010A0  6F84               	movwf	??_main& (0+255),b
   631   0010A2  0E6A               	movlw	106
   632   0010A4                     u1077:
   633   0010A4  2EE8               	decfsz	wreg,f,c
   634   0010A6  D7FE               	bra	u1077
   635   0010A8  2F84               	decfsz	??_main& (0+255),f,b
   636   0010AA  D7FC               	bra	u1077
   637   0010AC  2F85               	decfsz	(??_main+1)& (0+255),f,b
   638   0010AE  D7FA               	bra	u1077
   639   0010B0  F000               	nop	
   640   0010B2                     
   641                           ;main.c: 91:     val2=EEPROM_24C02C_Read_Byte(0x51,0x00);
   642   0010B2  0E00               	movlw	0
   643   0010B4  6E26               	movwf	EEPROM_24C02C_Read_Byte@Byte_Add^0,c
   644   0010B6  0E51               	movlw	81
   645   0010B8  EC40  F00D         	call	_EEPROM_24C02C_Read_Byte
   646   0010BC  6E34               	movwf	_val2^0,c
   647   0010BE                     l3157:
   648   0010BE  EC61  F00B         	call	_RealTimeClock_Get_Date_Time	;wreg free
   649   0010C2                     
   650                           ;main.c: 96:         Send_Date_UART();
   651   0010C2  EC84  F009         	call	_Send_Date_UART	;wreg free
   652   0010C6                     
   653                           ;main.c: 97:         Temp=Temp_Sensor_TC74_ReadValue(0x4D);
   654   0010C6  0E4D               	movlw	77
   655   0010C8  EC2E  F00D         	call	_Temp_Sensor_TC74_ReadValue
   656   0010CC  6E36               	movwf	_Temp^0,c
   657   0010CE                     
   658                           ;main.c: 98:         I2C_Write1ByteRegister(0x70,0x00,Temp);
   659   0010CE  0E00               	movlw	0
   660   0010D0  6E23               	movwf	I2C_Write1ByteRegister@reg^0,c
   661   0010D2  C036  F024         	movff	_Temp,I2C_Write1ByteRegister@data
   662   0010D6  0E70               	movlw	112
   663   0010D8  ECF7  F00A         	call	_I2C_Write1ByteRegister
   664   0010DC                     
   665                           ;main.c: 99:         _delay((unsigned long)((500)*(16000000/4000.0)));
   666   0010DC  0E0B               	movlw	11
   667   0010DE  0100               	movlb	0	; () banked
   668   0010E0  6F85               	movwf	(??_main+1)& (0+255),b
   669   0010E2  0E26               	movlw	38
   670   0010E4  6F84               	movwf	??_main& (0+255),b
   671   0010E6  0E5D               	movlw	93
   672   0010E8                     u1087:
   673   0010E8  2EE8               	decfsz	wreg,f,c
   674   0010EA  D7FE               	bra	u1087
   675   0010EC  2F84               	decfsz	??_main& (0+255),f,b
   676   0010EE  D7FC               	bra	u1087
   677   0010F0  2F85               	decfsz	(??_main+1)& (0+255),f,b
   678   0010F2  D7FA               	bra	u1087
   679   0010F4  F000 F000          	nop2	
   680   0010F8  EF5F  F008         	goto	l3157
   681   0010FC  EF5B  F000         	goto	start
   682   001100                     __end_of_main:
   683                           	callstack 0
   684                           
   685 ;; *************** function _Temp_Sensor_TC74_ReadValue *****************
   686 ;; Defined at:
   687 ;;		line 4 in file "AECUL/TC74_Module/TC74_Dri.c"
   688 ;; Parameters:    Size  Location     Type
   689 ;;  TC74_Add        1    wreg     unsigned char 
   690 ;; Auto vars:     Size  Location     Type
   691 ;;  TC74_Add        1   37[COMRAM] unsigned char 
   692 ;;  TempVAl         1   38[COMRAM] unsigned char 
   693 ;; Return value:  Size  Location     Type
   694 ;;                  1    wreg      unsigned char 
   695 ;; Registers used:
   696 ;;		wreg, fsr2l, fsr2h, status,2, status,0, prodl, prodh, cstack
   697 ;; Tracked objects:
   698 ;;		On entry : 0/0
   699 ;;		On exit  : 0/0
   700 ;;		Unchanged: 0/0
   701 ;; Data sizes:     COMRAM   BANK0   BANK1   BANK2   BANK3   BANK4   BANK5   BANK6   BANK7   BANK8   BANK9  BANK10  BANK1
      +1  BANK12  BANK13  BANK14  BANK15
   702 ;;      Params:         0       0       0       0       0       0       0       0       0       0       0       0       
      +0       0       0       0       0
   703 ;;      Locals:         2       0       0       0       0       0       0       0       0       0       0       0       
      +0       0       0       0       0
   704 ;;      Temps:          0       0       0       0       0       0       0       0       0       0       0       0       
      +0       0       0       0       0
   705 ;;      Totals:         2       0       0       0       0       0       0       0       0       0       0       0       
      +0       0       0       0       0
   706 ;;Total ram usage:        2 bytes
   707 ;; Hardware stack levels used: 1
   708 ;; Hardware stack levels required when called: 11
   709 ;; This function calls:
   710 ;;		_I2C_Read1ByteRegister
   711 ;; This function is called by:
   712 ;;		_main
   713 ;; This function uses a non-reentrant model
   714 ;;
   715                           
   716                           	psect	text1
   717   001A5C                     __ptext1:
   718                           	callstack 0
   719   001A5C                     _Temp_Sensor_TC74_ReadValue:
   720                           	callstack 19
   721                           
   722                           ;incstack = 0
   723                           ;Temp_Sensor_TC74_ReadValue@TC74_Add stored from wreg
   724   001A5C  6E26               	movwf	Temp_Sensor_TC74_ReadValue@TC74_Add^0,c
   725   001A5E                     
   726                           ;AECUL/TC74_Module/TC74_Dri.c: 7:     TempVAl=I2C_Read1ByteRegister(TC74_Add,0x00);
   727   001A5E  0E00               	movlw	0
   728   001A60  6E23               	movwf	I2C_Read1ByteRegister@reg^0,c
   729   001A62  5026               	movf	Temp_Sensor_TC74_ReadValue@TC74_Add^0,w,c
   730   001A64  EC85  F00A         	call	_I2C_Read1ByteRegister
   731   001A68  6E27               	movwf	Temp_Sensor_TC74_ReadValue@TempVAl^0,c
   732   001A6A                     
   733                           ;AECUL/TC74_Module/TC74_Dri.c: 8:     return TempVAl;
   734   001A6A  5027               	movf	Temp_Sensor_TC74_ReadValue@TempVAl^0,w,c
   735   001A6C  0012               	return		;funcret
   736   001A6E                     __end_of_Temp_Sensor_TC74_ReadValue:
   737                           	callstack 0
   738                           
   739 ;; *************** function _Send_Date_UART *****************
   740 ;; Defined at:
   741 ;;		line 29 in file "RealTimeClockDs1307/RealTimeClockDs1307.c"
   742 ;; Parameters:    Size  Location     Type
   743 ;;		None
   744 ;; Auto vars:     Size  Location     Type
   745 ;;		None
   746 ;; Return value:  Size  Location     Type
   747 ;;                  1    wreg      void 
   748 ;; Registers used:
   749 ;;		wreg, fsr0l, fsr0h, status,2, status,0, tblptrl, tblptrh, tblptru, cstack
   750 ;; Tracked objects:
   751 ;;		On entry : 0/0
   752 ;;		On exit  : 0/0
   753 ;;		Unchanged: 0/0
   754 ;; Data sizes:     COMRAM   BANK0   BANK1   BANK2   BANK3   BANK4   BANK5   BANK6   BANK7   BANK8   BANK9  BANK10  BANK1
      +1  BANK12  BANK13  BANK14  BANK15
   755 ;;      Params:         0       0       0       0       0       0       0       0       0       0       0       0       
      +0       0       0       0       0
   756 ;;      Locals:         0       0       0       0       0       0       0       0       0       0       0       0       
      +0       0       0       0       0
   757 ;;      Temps:          0       0       0       0       0       0       0       0       0       0       0       0       
      +0       0       0       0       0
   758 ;;      Totals:         0       0       0       0       0       0       0       0       0       0       0       0       
      +0       0       0       0       0
   759 ;;Total ram usage:        0 bytes
   760 ;; Hardware stack levels used: 1
   761 ;; Hardware stack levels required when called: 9
   762 ;; This function calls:
   763 ;;		_UART_SEND_STRING
   764 ;; This function is called by:
   765 ;;		_main
   766 ;; This function uses a non-reentrant model
   767 ;;
   768                           
   769                           	psect	text2
   770   001308                     __ptext2:
   771                           	callstack 0
   772   001308                     _Send_Date_UART:
   773                           	callstack 21
   774   001308                     
   775                           ;RealTimeClockDs1307/RealTimeClockDs1307.c: 30:     Date_pack[0] = ((Time_Clock_Date._da
      +                          y >> 4)+0x30);
   776   001308  3831               	swapf	(_Time_Clock_Date+5)^0,w,c
   777   00130A  0B0F               	andlw	15
   778   00130C  0F30               	addlw	48
   779   00130E  6E38               	movwf	_Date_pack^0,c
   780                           
   781                           ;RealTimeClockDs1307/RealTimeClockDs1307.c: 31:     Date_pack[1] = ((Time_Clock_Date._da
      +                          y & 0x0F)+0x30);
   782   001310  5031               	movf	(_Time_Clock_Date+5)^0,w,c
   783   001312  0B0F               	andlw	15
   784   001314  0F30               	addlw	48
   785   001316  6E39               	movwf	(_Date_pack+1)^0,c
   786   001318                     
   787                           ;RealTimeClockDs1307/RealTimeClockDs1307.c: 32:     Date_pack[2] = '-';
   788   001318  0E2D               	movlw	45
   789   00131A  6E3A               	movwf	(_Date_pack+2)^0,c
   790   00131C                     
   791                           ;RealTimeClockDs1307/RealTimeClockDs1307.c: 33:     Date_pack[3] = ((Time_Clock_Date._Mo
      +                          nth >> 4)+0x30);
   792   00131C  3830               	swapf	(_Time_Clock_Date+4)^0,w,c
   793   00131E  0B0F               	andlw	15
   794   001320  0F30               	addlw	48
   795   001322  6E3B               	movwf	(_Date_pack+3)^0,c
   796   001324                     
   797                           ;RealTimeClockDs1307/RealTimeClockDs1307.c: 34:     Date_pack[4] = ((Time_Clock_Date._Mo
      +                          nth & 0x0F)+0x30);
   798   001324  5030               	movf	(_Time_Clock_Date+4)^0,w,c
   799   001326  0B0F               	andlw	15
   800   001328  0F30               	addlw	48
   801   00132A  6E3C               	movwf	(_Date_pack+4)^0,c
   802   00132C                     
   803                           ;RealTimeClockDs1307/RealTimeClockDs1307.c: 35:     Date_pack[5] = '-';
   804   00132C  0E2D               	movlw	45
   805   00132E  6E3D               	movwf	(_Date_pack+5)^0,c
   806                           
   807                           ;RealTimeClockDs1307/RealTimeClockDs1307.c: 36:     Date_pack[6] = ((Time_Clock_Date._Ye
      +                          ar >> 4)+0x30);
   808   001330  382F               	swapf	(_Time_Clock_Date+3)^0,w,c
   809   001332  0B0F               	andlw	15
   810   001334  0F30               	addlw	48
   811   001336  6E3E               	movwf	(_Date_pack+6)^0,c
   812                           
   813                           ;RealTimeClockDs1307/RealTimeClockDs1307.c: 37:     Date_pack[7] = ((Time_Clock_Date._Ye
      +                          ar & 0x0F)+0x30);
   814   001338  502F               	movf	(_Time_Clock_Date+3)^0,w,c
   815   00133A  0B0F               	andlw	15
   816   00133C  0F30               	addlw	48
   817   00133E  6E3F               	movwf	(_Date_pack+7)^0,c
   818   001340                     
   819                           ;RealTimeClockDs1307/RealTimeClockDs1307.c: 38:     Date_pack[8] = '/';
   820   001340  0E2F               	movlw	47
   821   001342  6E40               	movwf	(_Date_pack+8)^0,c
   822   001344                     
   823                           ;RealTimeClockDs1307/RealTimeClockDs1307.c: 39:     Date_pack[9] = ((Time_Clock_Date._Ho
      +                          urs >> 4)+0x30);
   824   001344  382C               	swapf	_Time_Clock_Date^0,w,c
   825   001346  0B0F               	andlw	15
   826   001348  0F30               	addlw	48
   827   00134A  6E41               	movwf	(_Date_pack+9)^0,c
   828   00134C                     
   829                           ;RealTimeClockDs1307/RealTimeClockDs1307.c: 40:     Date_pack[10] = ((Time_Clock_Date._H
      +                          ours & 0x0F)+0x30);
   830   00134C  502C               	movf	_Time_Clock_Date^0,w,c
   831   00134E  0B0F               	andlw	15
   832   001350  0F30               	addlw	48
   833   001352  6E42               	movwf	(_Date_pack+10)^0,c
   834   001354                     
   835                           ;RealTimeClockDs1307/RealTimeClockDs1307.c: 41:     Date_pack[11] = '-';
   836   001354  0E2D               	movlw	45
   837   001356  6E43               	movwf	(_Date_pack+11)^0,c
   838                           
   839                           ;RealTimeClockDs1307/RealTimeClockDs1307.c: 42:     Date_pack[12] = ((Time_Clock_Date._M
      +                          inutes >> 4)+0x30);
   840   001358  382D               	swapf	(_Time_Clock_Date+1)^0,w,c
   841   00135A  0B0F               	andlw	15
   842   00135C  0F30               	addlw	48
   843   00135E  6E44               	movwf	(_Date_pack+12)^0,c
   844                           
   845                           ;RealTimeClockDs1307/RealTimeClockDs1307.c: 43:     Date_pack[13] = ((Time_Clock_Date._M
      +                          inutes & 0x0F)+0x30);
   846   001360  502D               	movf	(_Time_Clock_Date+1)^0,w,c
   847   001362  0B0F               	andlw	15
   848   001364  0F30               	addlw	48
   849   001366  6E45               	movwf	(_Date_pack+13)^0,c
   850   001368                     
   851                           ;RealTimeClockDs1307/RealTimeClockDs1307.c: 44:     Date_pack[14] = '-';
   852   001368  0E2D               	movlw	45
   853   00136A  6E46               	movwf	(_Date_pack+14)^0,c
   854   00136C                     
   855                           ;RealTimeClockDs1307/RealTimeClockDs1307.c: 45:     Date_pack[15] = ((Time_Clock_Date._S
      +                          econds >> 4)+0x30);
   856   00136C  382E               	swapf	(_Time_Clock_Date+2)^0,w,c
   857   00136E  0B0F               	andlw	15
   858   001370  0F30               	addlw	48
   859   001372  6E47               	movwf	(_Date_pack+15)^0,c
   860   001374                     
   861                           ;RealTimeClockDs1307/RealTimeClockDs1307.c: 46:     Date_pack[16] = ((Time_Clock_Date._S
      +                          econds & 0x0F)+0x30);
   862   001374  502E               	movf	(_Time_Clock_Date+2)^0,w,c
   863   001376  0B0F               	andlw	15
   864   001378  0F30               	addlw	48
   865   00137A  6E48               	movwf	(_Date_pack+16)^0,c
   866   00137C                     
   867                           ;RealTimeClockDs1307/RealTimeClockDs1307.c: 47:     Date_pack[17] = '\r';
   868   00137C  0E0D               	movlw	13
   869   00137E  6E49               	movwf	(_Date_pack+17)^0,c
   870   001380                     
   871                           ;RealTimeClockDs1307/RealTimeClockDs1307.c: 48:     UART_SEND_STRING("Date : ", 8);
   872   001380  0E32               	movlw	low STR_1
   873   001382  6E1B               	movwf	UART_SEND_STRING@string^0,c
   874   001384  0E10               	movlw	high STR_1
   875   001386  6E1C               	movwf	(UART_SEND_STRING@string+1)^0,c
   876   001388  0E08               	movlw	8
   877   00138A  6E1D               	movwf	UART_SEND_STRING@sting_lenght^0,c
   878   00138C  EC8F  F00B         	call	_UART_SEND_STRING	;wreg free
   879   001390                     
   880                           ;RealTimeClockDs1307/RealTimeClockDs1307.c: 49:     UART_SEND_STRING(Date_pack, 18);
   881   001390  0E38               	movlw	low _Date_pack
   882   001392  6E1B               	movwf	UART_SEND_STRING@string^0,c
   883   001394  0E00               	movlw	high _Date_pack
   884   001396  6E1C               	movwf	(UART_SEND_STRING@string+1)^0,c
   885   001398  0E12               	movlw	18
   886   00139A  6E1D               	movwf	UART_SEND_STRING@sting_lenght^0,c
   887   00139C  EC8F  F00B         	call	_UART_SEND_STRING	;wreg free
   888   0013A0  0012               	return		;funcret
   889   0013A2                     __end_of_Send_Date_UART:
   890                           	callstack 0
   891                           
   892 ;; *************** function _UART_SEND_STRING *****************
   893 ;; Defined at:
   894 ;;		line 11 in file "AECUL/UART_Depugging_Data/UART_Depugging_Data.c"
   895 ;; Parameters:    Size  Location     Type
   896 ;;  string          2   26[COMRAM] PTR unsigned char 
   897 ;;		 -> STR_2(17), STR_1(8), Date_pack(8), 
   898 ;;  sting_lenght    1   28[COMRAM] unsigned char 
   899 ;; Auto vars:     Size  Location     Type
   900 ;;  l_sting_leng    1   29[COMRAM] unsigned char 
   901 ;; Return value:  Size  Location     Type
   902 ;;                  1    wreg      void 
   903 ;; Registers used:
   904 ;;		wreg, fsr0l, fsr0h, status,2, status,0, tblptrl, tblptrh, tblptru, cstack
   905 ;; Tracked objects:
   906 ;;		On entry : 0/0
   907 ;;		On exit  : 0/0
   908 ;;		Unchanged: 0/0
   909 ;; Data sizes:     COMRAM   BANK0   BANK1   BANK2   BANK3   BANK4   BANK5   BANK6   BANK7   BANK8   BANK9  BANK10  BANK1
      +1  BANK12  BANK13  BANK14  BANK15
   910 ;;      Params:         3       0       0       0       0       0       0       0       0       0       0       0       
      +0       0       0       0       0
   911 ;;      Locals:         1       0       0       0       0       0       0       0       0       0       0       0       
      +0       0       0       0       0
   912 ;;      Temps:          0       0       0       0       0       0       0       0       0       0       0       0       
      +0       0       0       0       0
   913 ;;      Totals:         4       0       0       0       0       0       0       0       0       0       0       0       
      +0       0       0       0       0
   914 ;;Total ram usage:        4 bytes
   915 ;; Hardware stack levels used: 1
   916 ;; Hardware stack levels required when called: 8
   917 ;; This function calls:
   918 ;;		_EUSART_Write
   919 ;; This function is called by:
   920 ;;		_Send_Date_UART
   921 ;;		_main
   922 ;; This function uses a non-reentrant model
   923 ;;
   924                           
   925                           	psect	text3
   926   00171E                     __ptext3:
   927                           	callstack 0
   928   00171E                     _UART_SEND_STRING:
   929                           	callstack 22
   930   00171E                     
   931                           ;AECUL/UART_Depugging_Data/UART_Depugging_Data.c: 12:     uint8_t l_sting_lenght = 0;
   932   00171E  0E00               	movlw	0
   933   001720  6E1E               	movwf	UART_SEND_STRING@l_sting_lenght^0,c
   934                           
   935                           ;AECUL/UART_Depugging_Data/UART_Depugging_Data.c: 13:     for(l_sting_lenght = 0; l_stin
      +                          g_lenght<sting_lenght; l_sting_lenght++){
   936   001722  0E00               	movlw	0
   937   001724  6E1E               	movwf	UART_SEND_STRING@l_sting_lenght^0,c
   938   001726  EFAB  F00B         	goto	l2813
   939   00172A                     l2807:
   940                           
   941                           ;AECUL/UART_Depugging_Data/UART_Depugging_Data.c: 14:     EUSART_Write(*string++);
   942   00172A  C01B  FFF6         	movff	UART_SEND_STRING@string,tblptrl
   943   00172E  C01C  FFF7         	movff	UART_SEND_STRING@string+1,tblptrh
   944   001732  0E00               	movlw	low (__smallconst shr (0+16))
   945   001734  6EF8               	movwf	tblptru,c
   946   001736  0E0F               	movlw	(high __ramtop+-1)
   947   001738  64F7               	cpfsgt	tblptrh,c
   948   00173A  D003               	bra	u837
   949   00173C  0008               	tblrd		*
   950   00173E  50F5               	movf	tablat,w,c
   951   001740  D005               	bra	u830
   952   001742                     u837:
   953   001742  CFF6 FFE9          	movff	tblptrl,fsr0l
   954   001746  CFF7 FFEA          	movff	tblptrh,fsr0h
   955   00174A  50EF               	movf	indf0,w,c
   956   00174C                     u830:
   957   00174C  EC04  F00D         	call	_EUSART_Write
   958   001750  4A1B               	infsnz	UART_SEND_STRING@string^0,f,c
   959   001752  2A1C               	incf	(UART_SEND_STRING@string+1)^0,f,c
   960   001754                     
   961                           ;AECUL/UART_Depugging_Data/UART_Depugging_Data.c: 15:     }
   962   001754  2A1E               	incf	UART_SEND_STRING@l_sting_lenght^0,f,c
   963   001756                     l2813:
   964   001756  501D               	movf	UART_SEND_STRING@sting_lenght^0,w,c
   965   001758  5C1E               	subwf	UART_SEND_STRING@l_sting_lenght^0,w,c
   966   00175A  A0D8               	btfss	status,0,c
   967   00175C  EFB2  F00B         	goto	u841
   968   001760  EFB4  F00B         	goto	u840
   969   001764                     u841:
   970   001764  EF95  F00B         	goto	l2807
   971   001768                     u840:
   972   001768  0012               	return		;funcret
   973   00176A                     __end_of_UART_SEND_STRING:
   974                           	callstack 0
   975                           
   976 ;; *************** function _EUSART_Write *****************
   977 ;; Defined at:
   978 ;;		line 132 in file "mcc_generated_files/eusart.c"
   979 ;; Parameters:    Size  Location     Type
   980 ;;  txData          1    wreg     unsigned char 
   981 ;; Auto vars:     Size  Location     Type
   982 ;;  txData          1   25[COMRAM] unsigned char 
   983 ;; Return value:  Size  Location     Type
   984 ;;                  1    wreg      void 
   985 ;; Registers used:
   986 ;;		wreg
   987 ;; Tracked objects:
   988 ;;		On entry : 0/0
   989 ;;		On exit  : 0/0
   990 ;;		Unchanged: 0/0
   991 ;; Data sizes:     COMRAM   BANK0   BANK1   BANK2   BANK3   BANK4   BANK5   BANK6   BANK7   BANK8   BANK9  BANK10  BANK1
      +1  BANK12  BANK13  BANK14  BANK15
   992 ;;      Params:         0       0       0       0       0       0       0       0       0       0       0       0       
      +0       0       0       0       0
   993 ;;      Locals:         1       0       0       0       0       0       0       0       0       0       0       0       
      +0       0       0       0       0
   994 ;;      Temps:          0       0       0       0       0       0       0       0       0       0       0       0       
      +0       0       0       0       0
   995 ;;      Totals:         1       0       0       0       0       0       0       0       0       0       0       0       
      +0       0       0       0       0
   996 ;;Total ram usage:        1 bytes
   997 ;; Hardware stack levels used: 1
   998 ;; Hardware stack levels required when called: 7
   999 ;; This function calls:
  1000 ;;		Nothing
  1001 ;; This function is called by:
  1002 ;;		_UART_SEND_STRING
  1003 ;; This function uses a non-reentrant model
  1004 ;;
  1005                           
  1006                           	psect	text4
  1007   001A08                     __ptext4:
  1008                           	callstack 0
  1009   001A08                     _EUSART_Write:
  1010                           	callstack 22
  1011                           
  1012                           ;incstack = 0
  1013                           ;EUSART_Write@txData stored from wreg
  1014   001A08  6E1A               	movwf	EUSART_Write@txData^0,c
  1015   001A0A                     l660:
  1016                           
  1017                           ;mcc_generated_files/eusart.c: 134:     while(0 == PIR1bits.TX1IF)
  1018   001A0A  A89E               	btfss	158,4,c	;volatile
  1019   001A0C  EF0A  F00D         	goto	u81
  1020   001A10  EF0C  F00D         	goto	u80
  1021   001A14                     u81:
  1022   001A14  EF05  F00D         	goto	l660
  1023   001A18                     u80:
  1024   001A18                     
  1025                           ;mcc_generated_files/eusart.c: 138:     TXREG = txData;
  1026   001A18  C01A  FFAD         	movff	EUSART_Write@txData,4013	;volatile
  1027   001A1C  0012               	return		;funcret
  1028   001A1E                     __end_of_EUSART_Write:
  1029                           	callstack 0
  1030                           
  1031 ;; *************** function _SYSTEM_Initialize *****************
  1032 ;; Defined at:
  1033 ;;		line 50 in file "mcc_generated_files/mcc.c"
  1034 ;; Parameters:    Size  Location     Type
  1035 ;;		None
  1036 ;; Auto vars:     Size  Location     Type
  1037 ;;		None
  1038 ;; Return value:  Size  Location     Type
  1039 ;;                  1    wreg      void 
  1040 ;; Registers used:
  1041 ;;		wreg, status,2, status,0, cstack
  1042 ;; Tracked objects:
  1043 ;;		On entry : 0/0
  1044 ;;		On exit  : 0/0
  1045 ;;		Unchanged: 0/0
  1046 ;; Data sizes:     COMRAM   BANK0   BANK1   BANK2   BANK3   BANK4   BANK5   BANK6   BANK7   BANK8   BANK9  BANK10  BANK1
      +1  BANK12  BANK13  BANK14  BANK15
  1047 ;;      Params:         0       0       0       0       0       0       0       0       0       0       0       0       
      +0       0       0       0       0
  1048 ;;      Locals:         0       0       0       0       0       0       0       0       0       0       0       0       
      +0       0       0       0       0
  1049 ;;      Temps:          0       0       0       0       0       0       0       0       0       0       0       0       
      +0       0       0       0       0
  1050 ;;      Totals:         0       0       0       0       0       0       0       0       0       0       0       0       
      +0       0       0       0       0
  1051 ;;Total ram usage:        0 bytes
  1052 ;; Hardware stack levels used: 1
  1053 ;; Hardware stack levels required when called: 9
  1054 ;; This function calls:
  1055 ;;		_EUSART_Initialize
  1056 ;;		_I2C_Initialize
  1057 ;;		_INTERRUPT_Initialize
  1058 ;;		_OSCILLATOR_Initialize
  1059 ;;		_PIN_MANAGER_Initialize
  1060 ;; This function is called by:
  1061 ;;		_main
  1062 ;; This function uses a non-reentrant model
  1063 ;;
  1064                           
  1065                           	psect	text5
  1066   001A1E                     __ptext5:
  1067                           	callstack 0
  1068   001A1E                     _SYSTEM_Initialize:
  1069                           	callstack 21
  1070   001A1E                     
  1071                           ;mcc_generated_files/mcc.c: 53:     INTERRUPT_Initialize();
  1072   001A1E  EC84  F00D         	call	_INTERRUPT_Initialize	;wreg free
  1073   001A22                     
  1074                           ;mcc_generated_files/mcc.c: 54:     I2C_Initialize();
  1075   001A22  EC1A  F00D         	call	_I2C_Initialize	;wreg free
  1076   001A26                     
  1077                           ;mcc_generated_files/mcc.c: 55:     PIN_MANAGER_Initialize();
  1078   001A26  EC14  F00C         	call	_PIN_MANAGER_Initialize	;wreg free
  1079   001A2A                     
  1080                           ;mcc_generated_files/mcc.c: 56:     OSCILLATOR_Initialize();
  1081   001A2A  EC6B  F00D         	call	_OSCILLATOR_Initialize	;wreg free
  1082   001A2E                     
  1083                           ;mcc_generated_files/mcc.c: 57:     EUSART_Initialize();
  1084   001A2E  ECF5  F00B         	call	_EUSART_Initialize	;wreg free
  1085   001A32  0012               	return		;funcret
  1086   001A34                     __end_of_SYSTEM_Initialize:
  1087                           	callstack 0
  1088                           
  1089 ;; *************** function _PIN_MANAGER_Initialize *****************
  1090 ;; Defined at:
  1091 ;;		line 55 in file "mcc_generated_files/pin_manager.c"
  1092 ;; Parameters:    Size  Location     Type
  1093 ;;		None
  1094 ;; Auto vars:     Size  Location     Type
  1095 ;;		None
  1096 ;; Return value:  Size  Location     Type
  1097 ;;                  1    wreg      void 
  1098 ;; Registers used:
  1099 ;;		wreg, status,2
  1100 ;; Tracked objects:
  1101 ;;		On entry : 0/0
  1102 ;;		On exit  : 0/0
  1103 ;;		Unchanged: 0/0
  1104 ;; Data sizes:     COMRAM   BANK0   BANK1   BANK2   BANK3   BANK4   BANK5   BANK6   BANK7   BANK8   BANK9  BANK10  BANK1
      +1  BANK12  BANK13  BANK14  BANK15
  1105 ;;      Params:         0       0       0       0       0       0       0       0       0       0       0       0       
      +0       0       0       0       0
  1106 ;;      Locals:         0       0       0       0       0       0       0       0       0       0       0       0       
      +0       0       0       0       0
  1107 ;;      Temps:          0       0       0       0       0       0       0       0       0       0       0       0       
      +0       0       0       0       0
  1108 ;;      Totals:         0       0       0       0       0       0       0       0       0       0       0       0       
      +0       0       0       0       0
  1109 ;;Total ram usage:        0 bytes
  1110 ;; Hardware stack levels used: 1
  1111 ;; Hardware stack levels required when called: 7
  1112 ;; This function calls:
  1113 ;;		Nothing
  1114 ;; This function is called by:
  1115 ;;		_SYSTEM_Initialize
  1116 ;; This function uses a non-reentrant model
  1117 ;;
  1118                           
  1119                           	psect	text6
  1120   001828                     __ptext6:
  1121                           	callstack 0
  1122   001828                     _PIN_MANAGER_Initialize:
  1123                           	callstack 22
  1124   001828                     
  1125                           ;mcc_generated_files/pin_manager.c: 60:     LATE = 0x00;
  1126   001828  0E00               	movlw	0
  1127   00182A  6E8D               	movwf	141,c	;volatile
  1128                           
  1129                           ;mcc_generated_files/pin_manager.c: 61:     LATD = 0x00;
  1130   00182C  0E00               	movlw	0
  1131   00182E  6E8C               	movwf	140,c	;volatile
  1132                           
  1133                           ;mcc_generated_files/pin_manager.c: 62:     LATA = 0x00;
  1134   001830  0E00               	movlw	0
  1135   001832  6E89               	movwf	137,c	;volatile
  1136                           
  1137                           ;mcc_generated_files/pin_manager.c: 63:     LATB = 0x00;
  1138   001834  0E00               	movlw	0
  1139   001836  6E8A               	movwf	138,c	;volatile
  1140                           
  1141                           ;mcc_generated_files/pin_manager.c: 64:     LATC = 0x00;
  1142   001838  0E00               	movlw	0
  1143   00183A  6E8B               	movwf	139,c	;volatile
  1144                           
  1145                           ;mcc_generated_files/pin_manager.c: 69:     TRISE = 0x07;
  1146   00183C  0E07               	movlw	7
  1147   00183E  6E96               	movwf	150,c	;volatile
  1148   001840                     
  1149                           ;mcc_generated_files/pin_manager.c: 70:     TRISA = 0xFF;
  1150   001840  6892               	setf	146,c	;volatile
  1151   001842                     
  1152                           ;mcc_generated_files/pin_manager.c: 71:     TRISB = 0xFF;
  1153   001842  6893               	setf	147,c	;volatile
  1154                           
  1155                           ;mcc_generated_files/pin_manager.c: 72:     TRISC = 0xBF;
  1156   001844  0EBF               	movlw	191
  1157   001846  6E94               	movwf	148,c	;volatile
  1158   001848                     
  1159                           ;mcc_generated_files/pin_manager.c: 73:     TRISD = 0xFF;
  1160   001848  6895               	setf	149,c	;volatile
  1161   00184A                     
  1162                           ;mcc_generated_files/pin_manager.c: 78:     ANSEL = 0xFF;
  1163   00184A  687E               	setf	126,c	;volatile
  1164                           
  1165                           ;mcc_generated_files/pin_manager.c: 79:     ANSELH = 0x1F;
  1166   00184C  0E1F               	movlw	31
  1167   00184E  6E7F               	movwf	127,c	;volatile
  1168                           
  1169                           ;mcc_generated_files/pin_manager.c: 84:     WPUB = 0x00;
  1170   001850  0E00               	movlw	0
  1171   001852  6E7C               	movwf	124,c	;volatile
  1172   001854                     
  1173                           ;mcc_generated_files/pin_manager.c: 85:     INTCON2bits.nRBPU = 1;
  1174   001854  8EF1               	bsf	241,7,c	;volatile
  1175   001856  0012               	return		;funcret
  1176   001858                     __end_of_PIN_MANAGER_Initialize:
  1177                           	callstack 0
  1178                           
  1179 ;; *************** function _OSCILLATOR_Initialize *****************
  1180 ;; Defined at:
  1181 ;;		line 60 in file "mcc_generated_files/mcc.c"
  1182 ;; Parameters:    Size  Location     Type
  1183 ;;		None
  1184 ;; Auto vars:     Size  Location     Type
  1185 ;;		None
  1186 ;; Return value:  Size  Location     Type
  1187 ;;                  1    wreg      void 
  1188 ;; Registers used:
  1189 ;;		wreg, status,2
  1190 ;; Tracked objects:
  1191 ;;		On entry : 0/0
  1192 ;;		On exit  : 0/0
  1193 ;;		Unchanged: 0/0
  1194 ;; Data sizes:     COMRAM   BANK0   BANK1   BANK2   BANK3   BANK4   BANK5   BANK6   BANK7   BANK8   BANK9  BANK10  BANK1
      +1  BANK12  BANK13  BANK14  BANK15
  1195 ;;      Params:         0       0       0       0       0       0       0       0       0       0       0       0       
      +0       0       0       0       0
  1196 ;;      Locals:         0       0       0       0       0       0       0       0       0       0       0       0       
      +0       0       0       0       0
  1197 ;;      Temps:          0       0       0       0       0       0       0       0       0       0       0       0       
      +0       0       0       0       0
  1198 ;;      Totals:         0       0       0       0       0       0       0       0       0       0       0       0       
      +0       0       0       0       0
  1199 ;;Total ram usage:        0 bytes
  1200 ;; Hardware stack levels used: 1
  1201 ;; Hardware stack levels required when called: 7
  1202 ;; This function calls:
  1203 ;;		Nothing
  1204 ;; This function is called by:
  1205 ;;		_SYSTEM_Initialize
  1206 ;; This function uses a non-reentrant model
  1207 ;;
  1208                           
  1209                           	psect	text7
  1210   001AD6                     __ptext7:
  1211                           	callstack 0
  1212   001AD6                     _OSCILLATOR_Initialize:
  1213                           	callstack 22
  1214   001AD6                     
  1215                           ;mcc_generated_files/mcc.c: 63:     OSCCON = 0x30;
  1216   001AD6  0E30               	movlw	48
  1217   001AD8  6ED3               	movwf	211,c	;volatile
  1218                           
  1219                           ;mcc_generated_files/mcc.c: 65:     OSCTUNE = 0x00;
  1220   001ADA  0E00               	movlw	0
  1221   001ADC  6E9B               	movwf	155,c	;volatile
  1222   001ADE  0012               	return		;funcret
  1223   001AE0                     __end_of_OSCILLATOR_Initialize:
  1224                           	callstack 0
  1225                           
  1226 ;; *************** function _INTERRUPT_Initialize *****************
  1227 ;; Defined at:
  1228 ;;		line 52 in file "mcc_generated_files/interrupt_manager.c"
  1229 ;; Parameters:    Size  Location     Type
  1230 ;;		None
  1231 ;; Auto vars:     Size  Location     Type
  1232 ;;		None
  1233 ;; Return value:  Size  Location     Type
  1234 ;;                  1    wreg      void 
  1235 ;; Registers used:
  1236 ;;		None
  1237 ;; Tracked objects:
  1238 ;;		On entry : 0/0
  1239 ;;		On exit  : 0/0
  1240 ;;		Unchanged: 0/0
  1241 ;; Data sizes:     COMRAM   BANK0   BANK1   BANK2   BANK3   BANK4   BANK5   BANK6   BANK7   BANK8   BANK9  BANK10  BANK1
      +1  BANK12  BANK13  BANK14  BANK15
  1242 ;;      Params:         0       0       0       0       0       0       0       0       0       0       0       0       
      +0       0       0       0       0
  1243 ;;      Locals:         0       0       0       0       0       0       0       0       0       0       0       0       
      +0       0       0       0       0
  1244 ;;      Temps:          0       0       0       0       0       0       0       0       0       0       0       0       
      +0       0       0       0       0
  1245 ;;      Totals:         0       0       0       0       0       0       0       0       0       0       0       0       
      +0       0       0       0       0
  1246 ;;Total ram usage:        0 bytes
  1247 ;; Hardware stack levels used: 1
  1248 ;; Hardware stack levels required when called: 7
  1249 ;; This function calls:
  1250 ;;		Nothing
  1251 ;; This function is called by:
  1252 ;;		_SYSTEM_Initialize
  1253 ;; This function uses a non-reentrant model
  1254 ;;
  1255                           
  1256                           	psect	text8
  1257   001B08                     __ptext8:
  1258                           	callstack 0
  1259   001B08                     _INTERRUPT_Initialize:
  1260                           	callstack 22
  1261   001B08                     
  1262                           ;mcc_generated_files/interrupt_manager.c: 55:     RCONbits.IPEN = 1;
  1263   001B08  8ED0               	bsf	208,7,c	;volatile
  1264                           
  1265                           ;mcc_generated_files/interrupt_manager.c: 60:     IPR2bits.BCLIP = 1;
  1266   001B0A  86A2               	bsf	162,3,c	;volatile
  1267                           
  1268                           ;mcc_generated_files/interrupt_manager.c: 63:     IPR1bits.SSPIP = 1;
  1269   001B0C  869F               	bsf	159,3,c	;volatile
  1270   001B0E  0012               	return		;funcret
  1271   001B10                     __end_of_INTERRUPT_Initialize:
  1272                           	callstack 0
  1273                           
  1274 ;; *************** function _I2C_Initialize *****************
  1275 ;; Defined at:
  1276 ;;		line 167 in file "mcc_generated_files/i2c_master.c"
  1277 ;; Parameters:    Size  Location     Type
  1278 ;;		None
  1279 ;; Auto vars:     Size  Location     Type
  1280 ;;		None
  1281 ;; Return value:  Size  Location     Type
  1282 ;;                  1    wreg      void 
  1283 ;; Registers used:
  1284 ;;		wreg, status,2
  1285 ;; Tracked objects:
  1286 ;;		On entry : 0/0
  1287 ;;		On exit  : 0/0
  1288 ;;		Unchanged: 0/0
  1289 ;; Data sizes:     COMRAM   BANK0   BANK1   BANK2   BANK3   BANK4   BANK5   BANK6   BANK7   BANK8   BANK9  BANK10  BANK1
      +1  BANK12  BANK13  BANK14  BANK15
  1290 ;;      Params:         0       0       0       0       0       0       0       0       0       0       0       0       
      +0       0       0       0       0
  1291 ;;      Locals:         0       0       0       0       0       0       0       0       0       0       0       0       
      +0       0       0       0       0
  1292 ;;      Temps:          0       0       0       0       0       0       0       0       0       0       0       0       
      +0       0       0       0       0
  1293 ;;      Totals:         0       0       0       0       0       0       0       0       0       0       0       0       
      +0       0       0       0       0
  1294 ;;Total ram usage:        0 bytes
  1295 ;; Hardware stack levels used: 1
  1296 ;; Hardware stack levels required when called: 7
  1297 ;; This function calls:
  1298 ;;		Nothing
  1299 ;; This function is called by:
  1300 ;;		_SYSTEM_Initialize
  1301 ;; This function uses a non-reentrant model
  1302 ;;
  1303                           
  1304                           	psect	text9
  1305   001A34                     __ptext9:
  1306                           	callstack 0
  1307   001A34                     _I2C_Initialize:
  1308                           	callstack 22
  1309   001A34                     
  1310                           ;mcc_generated_files/i2c_master.c: 169:     SSPSTAT = 0x80;
  1311   001A34  0E80               	movlw	128
  1312   001A36  6EC7               	movwf	199,c	;volatile
  1313                           
  1314                           ;mcc_generated_files/i2c_master.c: 170:     SSPCON1 = 0x08;
  1315   001A38  0E08               	movlw	8
  1316   001A3A  6EC6               	movwf	198,c	;volatile
  1317                           
  1318                           ;mcc_generated_files/i2c_master.c: 171:     SSPCON2 = 0x00;
  1319   001A3C  0E00               	movlw	0
  1320   001A3E  6EC5               	movwf	197,c	;volatile
  1321                           
  1322                           ;mcc_generated_files/i2c_master.c: 172:     SSPADD = 0x27;
  1323   001A40  0E27               	movlw	39
  1324   001A42  6EC8               	movwf	200,c	;volatile
  1325   001A44                     
  1326                           ;mcc_generated_files/i2c_master.c: 173:     SSPCON1bits.SSPEN = 0;
  1327   001A44  9AC6               	bcf	198,5,c	;volatile
  1328   001A46  0012               	return		;funcret
  1329   001A48                     __end_of_I2C_Initialize:
  1330                           	callstack 0
  1331                           
  1332 ;; *************** function _EUSART_Initialize *****************
  1333 ;; Defined at:
  1334 ;;		line 66 in file "mcc_generated_files/eusart.c"
  1335 ;; Parameters:    Size  Location     Type
  1336 ;;		None
  1337 ;; Auto vars:     Size  Location     Type
  1338 ;;		None
  1339 ;; Return value:  Size  Location     Type
  1340 ;;                  1    wreg      void 
  1341 ;; Registers used:
  1342 ;;		wreg, status,2, status,0, cstack
  1343 ;; Tracked objects:
  1344 ;;		On entry : 0/0
  1345 ;;		On exit  : 0/0
  1346 ;;		Unchanged: 0/0
  1347 ;; Data sizes:     COMRAM   BANK0   BANK1   BANK2   BANK3   BANK4   BANK5   BANK6   BANK7   BANK8   BANK9  BANK10  BANK1
      +1  BANK12  BANK13  BANK14  BANK15
  1348 ;;      Params:         0       0       0       0       0       0       0       0       0       0       0       0       
      +0       0       0       0       0
  1349 ;;      Locals:         0       0       0       0       0       0       0       0       0       0       0       0       
      +0       0       0       0       0
  1350 ;;      Temps:          0       0       0       0       0       0       0       0       0       0       0       0       
      +0       0       0       0       0
  1351 ;;      Totals:         0       0       0       0       0       0       0       0       0       0       0       0       
      +0       0       0       0       0
  1352 ;;Total ram usage:        0 bytes
  1353 ;; Hardware stack levels used: 1
  1354 ;; Hardware stack levels required when called: 8
  1355 ;; This function calls:
  1356 ;;		_EUSART_SetErrorHandler
  1357 ;;		_EUSART_SetFramingErrorHandler
  1358 ;;		_EUSART_SetOverrunErrorHandler
  1359 ;; This function is called by:
  1360 ;;		_SYSTEM_Initialize
  1361 ;; This function uses a non-reentrant model
  1362 ;;
  1363                           
  1364                           	psect	text10
  1365   0017EA                     __ptext10:
  1366                           	callstack 0
  1367   0017EA                     _EUSART_Initialize:
  1368                           	callstack 21
  1369   0017EA                     
  1370                           ;mcc_generated_files/eusart.c: 71:     BAUDCON = 0x08;
  1371   0017EA  0E08               	movlw	8
  1372   0017EC  6EB8               	movwf	184,c	;volatile
  1373                           
  1374                           ;mcc_generated_files/eusart.c: 74:     RCSTA = 0x90;
  1375   0017EE  0E90               	movlw	144
  1376   0017F0  6EAB               	movwf	171,c	;volatile
  1377                           
  1378                           ;mcc_generated_files/eusart.c: 77:     TXSTA = 0x24;
  1379   0017F2  0E24               	movlw	36
  1380   0017F4  6EAC               	movwf	172,c	;volatile
  1381                           
  1382                           ;mcc_generated_files/eusart.c: 80:     SPBRG = 0xA0;
  1383   0017F6  0EA0               	movlw	160
  1384   0017F8  6EAF               	movwf	175,c	;volatile
  1385                           
  1386                           ;mcc_generated_files/eusart.c: 83:     SPBRGH = 0x01;
  1387   0017FA  0E01               	movlw	1
  1388   0017FC  6EB0               	movwf	176,c	;volatile
  1389   0017FE                     
  1390                           ;mcc_generated_files/eusart.c: 86:     EUSART_SetFramingErrorHandler(EUSART_DefaultFrami
      +                          ngErrorHandler);
  1391   0017FE  0E00               	movlw	0
  1392   001800  6E1A               	movwf	EUSART_SetFramingErrorHandler@interruptHandler^0,c
  1393   001802  0E00               	movlw	0
  1394   001804  6E1B               	movwf	(EUSART_SetFramingErrorHandler@interruptHandler+1)^0,c
  1395   001806  EC75  F00D         	call	_EUSART_SetFramingErrorHandler	;wreg free
  1396   00180A                     
  1397                           ;mcc_generated_files/eusart.c: 87:     EUSART_SetOverrunErrorHandler(EUSART_DefaultOverr
      +                          unErrorHandler);
  1398   00180A  0E00               	movlw	0
  1399   00180C  6E1A               	movwf	EUSART_SetOverrunErrorHandler@interruptHandler^0,c
  1400   00180E  0E00               	movlw	0
  1401   001810  6E1B               	movwf	(EUSART_SetOverrunErrorHandler@interruptHandler+1)^0,c
  1402   001812  EC70  F00D         	call	_EUSART_SetOverrunErrorHandler	;wreg free
  1403   001816                     
  1404                           ;mcc_generated_files/eusart.c: 88:     EUSART_SetErrorHandler(EUSART_DefaultErrorHandler
      +                          );
  1405   001816  0E00               	movlw	0
  1406   001818  6E1A               	movwf	EUSART_SetErrorHandler@interruptHandler^0,c
  1407   00181A  0E00               	movlw	0
  1408   00181C  6E1B               	movwf	(EUSART_SetErrorHandler@interruptHandler+1)^0,c
  1409   00181E  EC7A  F00D         	call	_EUSART_SetErrorHandler	;wreg free
  1410   001822                     
  1411                           ;mcc_generated_files/eusart.c: 90:     eusartRxLastError.status = 0;
  1412   001822  0E00               	movlw	0
  1413   001824  6E37               	movwf	_eusartRxLastError^0,c	;volatile
  1414   001826  0012               	return		;funcret
  1415   001828                     __end_of_EUSART_Initialize:
  1416                           	callstack 0
  1417                           
  1418 ;; *************** function _EUSART_SetOverrunErrorHandler *****************
  1419 ;; Defined at:
  1420 ;;		line 161 in file "mcc_generated_files/eusart.c"
  1421 ;; Parameters:    Size  Location     Type
  1422 ;;  interruptHan    2   25[COMRAM] PTR FTN()void 
  1423 ;;		 -> EUSART_DefaultOverrunErrorHandler(1), 
  1424 ;; Auto vars:     Size  Location     Type
  1425 ;;		None
  1426 ;; Return value:  Size  Location     Type
  1427 ;;                  1    wreg      void 
  1428 ;; Registers used:
  1429 ;;		wreg, status,2, status,0
  1430 ;; Tracked objects:
  1431 ;;		On entry : 0/0
  1432 ;;		On exit  : 0/0
  1433 ;;		Unchanged: 0/0
  1434 ;; Data sizes:     COMRAM   BANK0   BANK1   BANK2   BANK3   BANK4   BANK5   BANK6   BANK7   BANK8   BANK9  BANK10  BANK1
      +1  BANK12  BANK13  BANK14  BANK15
  1435 ;;      Params:         2       0       0       0       0       0       0       0       0       0       0       0       
      +0       0       0       0       0
  1436 ;;      Locals:         0       0       0       0       0       0       0       0       0       0       0       0       
      +0       0       0       0       0
  1437 ;;      Temps:          0       0       0       0       0       0       0       0       0       0       0       0       
      +0       0       0       0       0
  1438 ;;      Totals:         2       0       0       0       0       0       0       0       0       0       0       0       
      +0       0       0       0       0
  1439 ;;Total ram usage:        2 bytes
  1440 ;; Hardware stack levels used: 1
  1441 ;; Hardware stack levels required when called: 7
  1442 ;; This function calls:
  1443 ;;		Nothing
  1444 ;; This function is called by:
  1445 ;;		_EUSART_Initialize
  1446 ;; This function uses a non-reentrant model
  1447 ;;
  1448                           
  1449                           	psect	text11
  1450   001AE0                     __ptext11:
  1451                           	callstack 0
  1452   001AE0                     _EUSART_SetOverrunErrorHandler:
  1453                           	callstack 21
  1454   001AE0                     
  1455                           ;mcc_generated_files/eusart.c: 162:     EUSART_OverrunErrorHandler = interruptHandler;
  1456   001AE0  C01A  F042         	movff	EUSART_SetOverrunErrorHandler@interruptHandler,_EUSART_OverrunErrorHandler
  1457   001AE4  C01B  F043         	movff	EUSART_SetOverrunErrorHandler@interruptHandler+1,_EUSART_OverrunErrorHandler+1
  1458   001AE8  0012               	return		;funcret
  1459   001AEA                     __end_of_EUSART_SetOverrunErrorHandler:
  1460                           	callstack 0
  1461                           
  1462 ;; *************** function _EUSART_SetFramingErrorHandler *****************
  1463 ;; Defined at:
  1464 ;;		line 157 in file "mcc_generated_files/eusart.c"
  1465 ;; Parameters:    Size  Location     Type
  1466 ;;  interruptHan    2   25[COMRAM] PTR FTN()void 
  1467 ;;		 -> EUSART_DefaultFramingErrorHandler(1), 
  1468 ;; Auto vars:     Size  Location     Type
  1469 ;;		None
  1470 ;; Return value:  Size  Location     Type
  1471 ;;                  1    wreg      void 
  1472 ;; Registers used:
  1473 ;;		wreg, status,2, status,0
  1474 ;; Tracked objects:
  1475 ;;		On entry : 0/0
  1476 ;;		On exit  : 0/0
  1477 ;;		Unchanged: 0/0
  1478 ;; Data sizes:     COMRAM   BANK0   BANK1   BANK2   BANK3   BANK4   BANK5   BANK6   BANK7   BANK8   BANK9  BANK10  BANK1
      +1  BANK12  BANK13  BANK14  BANK15
  1479 ;;      Params:         2       0       0       0       0       0       0       0       0       0       0       0       
      +0       0       0       0       0
  1480 ;;      Locals:         0       0       0       0       0       0       0       0       0       0       0       0       
      +0       0       0       0       0
  1481 ;;      Temps:          0       0       0       0       0       0       0       0       0       0       0       0       
      +0       0       0       0       0
  1482 ;;      Totals:         2       0       0       0       0       0       0       0       0       0       0       0       
      +0       0       0       0       0
  1483 ;;Total ram usage:        2 bytes
  1484 ;; Hardware stack levels used: 1
  1485 ;; Hardware stack levels required when called: 7
  1486 ;; This function calls:
  1487 ;;		Nothing
  1488 ;; This function is called by:
  1489 ;;		_EUSART_Initialize
  1490 ;; This function uses a non-reentrant model
  1491 ;;
  1492                           
  1493                           	psect	text12
  1494   001AEA                     __ptext12:
  1495                           	callstack 0
  1496   001AEA                     _EUSART_SetFramingErrorHandler:
  1497                           	callstack 21
  1498   001AEA                     
  1499                           ;mcc_generated_files/eusart.c: 158:     EUSART_FramingErrorHandler = interruptHandler;
  1500   001AEA  C01A  F044         	movff	EUSART_SetFramingErrorHandler@interruptHandler,_EUSART_FramingErrorHandler
  1501   001AEE  C01B  F045         	movff	EUSART_SetFramingErrorHandler@interruptHandler+1,_EUSART_FramingErrorHandler+1
  1502   001AF2  0012               	return		;funcret
  1503   001AF4                     __end_of_EUSART_SetFramingErrorHandler:
  1504                           	callstack 0
  1505                           
  1506 ;; *************** function _EUSART_SetErrorHandler *****************
  1507 ;; Defined at:
  1508 ;;		line 165 in file "mcc_generated_files/eusart.c"
  1509 ;; Parameters:    Size  Location     Type
  1510 ;;  interruptHan    2   25[COMRAM] PTR FTN()void 
  1511 ;;		 -> EUSART_DefaultErrorHandler(1), 
  1512 ;; Auto vars:     Size  Location     Type
  1513 ;;		None
  1514 ;; Return value:  Size  Location     Type
  1515 ;;                  1    wreg      void 
  1516 ;; Registers used:
  1517 ;;		wreg, status,2, status,0
  1518 ;; Tracked objects:
  1519 ;;		On entry : 0/0
  1520 ;;		On exit  : 0/0
  1521 ;;		Unchanged: 0/0
  1522 ;; Data sizes:     COMRAM   BANK0   BANK1   BANK2   BANK3   BANK4   BANK5   BANK6   BANK7   BANK8   BANK9  BANK10  BANK1
      +1  BANK12  BANK13  BANK14  BANK15
  1523 ;;      Params:         2       0       0       0       0       0       0       0       0       0       0       0       
      +0       0       0       0       0
  1524 ;;      Locals:         0       0       0       0       0       0       0       0       0       0       0       0       
      +0       0       0       0       0
  1525 ;;      Temps:          0       0       0       0       0       0       0       0       0       0       0       0       
      +0       0       0       0       0
  1526 ;;      Totals:         2       0       0       0       0       0       0       0       0       0       0       0       
      +0       0       0       0       0
  1527 ;;Total ram usage:        2 bytes
  1528 ;; Hardware stack levels used: 1
  1529 ;; Hardware stack levels required when called: 7
  1530 ;; This function calls:
  1531 ;;		Nothing
  1532 ;; This function is called by:
  1533 ;;		_EUSART_Initialize
  1534 ;; This function uses a non-reentrant model
  1535 ;;
  1536                           
  1537                           	psect	text13
  1538   001AF4                     __ptext13:
  1539                           	callstack 0
  1540   001AF4                     _EUSART_SetErrorHandler:
  1541                           	callstack 21
  1542   001AF4                     
  1543                           ;mcc_generated_files/eusart.c: 166:     EUSART_ErrorHandler = interruptHandler;
  1544   001AF4  C01A  F040         	movff	EUSART_SetErrorHandler@interruptHandler,_EUSART_ErrorHandler
  1545   001AF8  C01B  F041         	movff	EUSART_SetErrorHandler@interruptHandler+1,_EUSART_ErrorHandler+1
  1546   001AFC  0012               	return		;funcret
  1547   001AFE                     __end_of_EUSART_SetErrorHandler:
  1548                           	callstack 0
  1549                           
  1550 ;; *************** function _RealTimeClock_Get_Date_Time *****************
  1551 ;; Defined at:
  1552 ;;		line 18 in file "RealTimeClockDs1307/RealTimeClockDs1307.c"
  1553 ;; Parameters:    Size  Location     Type
  1554 ;;		None
  1555 ;; Auto vars:     Size  Location     Type
  1556 ;;		None
  1557 ;; Return value:  Size  Location     Type
  1558 ;;                  6   37[COMRAM] struct .
  1559 ;; Registers used:
  1560 ;;		wreg, fsr0l, fsr0h, fsr2l, fsr2h, status,2, status,0, prodl, prodh, cstack
  1561 ;; Tracked objects:
  1562 ;;		On entry : 0/0
  1563 ;;		On exit  : 0/0
  1564 ;;		Unchanged: 0/0
  1565 ;; Data sizes:     COMRAM   BANK0   BANK1   BANK2   BANK3   BANK4   BANK5   BANK6   BANK7   BANK8   BANK9  BANK10  BANK1
      +1  BANK12  BANK13  BANK14  BANK15
  1566 ;;      Params:         6       0       0       0       0       0       0       0       0       0       0       0       
      +0       0       0       0       0
  1567 ;;      Locals:         0       0       0       0       0       0       0       0       0       0       0       0       
      +0       0       0       0       0
  1568 ;;      Temps:          0       0       0       0       0       0       0       0       0       0       0       0       
      +0       0       0       0       0
  1569 ;;      Totals:         6       0       0       0       0       0       0       0       0       0       0       0       
      +0       0       0       0       0
  1570 ;;Total ram usage:        6 bytes
  1571 ;; Hardware stack levels used: 1
  1572 ;; Hardware stack levels required when called: 11
  1573 ;; This function calls:
  1574 ;;		_I2C_Read1ByteRegister
  1575 ;; This function is called by:
  1576 ;;		_main
  1577 ;; This function uses a non-reentrant model
  1578 ;;
  1579                           
  1580                           	psect	text14
  1581   0016C2                     __ptext14:
  1582                           	callstack 0
  1583   0016C2                     _RealTimeClock_Get_Date_Time:
  1584                           	callstack 19
  1585   0016C2                     
  1586                           ;RealTimeClockDs1307/RealTimeClockDs1307.c: 19:     Time_Clock_Date._Hours = I2C_Read1By
      +                          teRegister(0x68,0x02);
  1587   0016C2  0E02               	movlw	2
  1588   0016C4  6E23               	movwf	I2C_Read1ByteRegister@reg^0,c
  1589   0016C6  0E68               	movlw	104
  1590   0016C8  EC85  F00A         	call	_I2C_Read1ByteRegister
  1591   0016CC  6E2C               	movwf	_Time_Clock_Date^0,c
  1592                           
  1593                           ;RealTimeClockDs1307/RealTimeClockDs1307.c: 20:     Time_Clock_Date._Minutes = I2C_Read1
      +                          ByteRegister(0x68,0x01);
  1594   0016CE  0E01               	movlw	1
  1595   0016D0  6E23               	movwf	I2C_Read1ByteRegister@reg^0,c
  1596   0016D2  0E68               	movlw	104
  1597   0016D4  EC85  F00A         	call	_I2C_Read1ByteRegister
  1598   0016D8  6E2D               	movwf	(_Time_Clock_Date+1)^0,c
  1599                           
  1600                           ;RealTimeClockDs1307/RealTimeClockDs1307.c: 21:     Time_Clock_Date._Month = I2C_Read1By
      +                          teRegister(0x68,0x05);
  1601   0016DA  0E05               	movlw	5
  1602   0016DC  6E23               	movwf	I2C_Read1ByteRegister@reg^0,c
  1603   0016DE  0E68               	movlw	104
  1604   0016E0  EC85  F00A         	call	_I2C_Read1ByteRegister
  1605   0016E4  6E30               	movwf	(_Time_Clock_Date+4)^0,c
  1606                           
  1607                           ;RealTimeClockDs1307/RealTimeClockDs1307.c: 22:     Time_Clock_Date._Seconds = I2C_Read1
      +                          ByteRegister(0x68,0x00);
  1608   0016E6  0E00               	movlw	0
  1609   0016E8  6E23               	movwf	I2C_Read1ByteRegister@reg^0,c
  1610   0016EA  0E68               	movlw	104
  1611   0016EC  EC85  F00A         	call	_I2C_Read1ByteRegister
  1612   0016F0  6E2E               	movwf	(_Time_Clock_Date+2)^0,c
  1613                           
  1614                           ;RealTimeClockDs1307/RealTimeClockDs1307.c: 23:     Time_Clock_Date._Year = I2C_Read1Byt
      +                          eRegister(0x68,0x06);
  1615   0016F2  0E06               	movlw	6
  1616   0016F4  6E23               	movwf	I2C_Read1ByteRegister@reg^0,c
  1617   0016F6  0E68               	movlw	104
  1618   0016F8  EC85  F00A         	call	_I2C_Read1ByteRegister
  1619   0016FC  6E2F               	movwf	(_Time_Clock_Date+3)^0,c
  1620                           
  1621                           ;RealTimeClockDs1307/RealTimeClockDs1307.c: 24:     Time_Clock_Date._day = I2C_Read1Byte
      +                          Register(0x68,0x04);
  1622   0016FE  0E04               	movlw	4
  1623   001700  6E23               	movwf	I2C_Read1ByteRegister@reg^0,c
  1624   001702  0E68               	movlw	104
  1625   001704  EC85  F00A         	call	_I2C_Read1ByteRegister
  1626   001708  6E31               	movwf	(_Time_Clock_Date+5)^0,c
  1627   00170A                     
  1628                           ;RealTimeClockDs1307/RealTimeClockDs1307.c: 25:     return Time_Clock_Date;
  1629   00170A  EE20  F02C         	lfsr	2,_Time_Clock_Date
  1630   00170E  EE00  F026         	lfsr	0,?_RealTimeClock_Get_Date_Time
  1631   001712  0E05               	movlw	5
  1632   001714                     u881:
  1633   001714  CFDB FFEB          	movff	plusw2,plusw0
  1634   001718  06E8               	decf	wreg,f,c
  1635   00171A  E2FC               	bc	u881
  1636   00171C  0012               	return		;funcret
  1637   00171E                     __end_of_RealTimeClock_Get_Date_Time:
  1638                           	callstack 0
  1639                           
  1640 ;; *************** function _EEPROM_24C02C_Write_Byte *****************
  1641 ;; Defined at:
  1642 ;;		line 13 in file "AECUL/EEPROM_24C02C/EEPROM_24C02C.c"
  1643 ;; Parameters:    Size  Location     Type
  1644 ;;  EEPROM_Add      1    wreg     unsigned char 
  1645 ;;  Byte_Add        1   37[COMRAM] unsigned char 
  1646 ;;  data            1   38[COMRAM] unsigned char 
  1647 ;; Auto vars:     Size  Location     Type
  1648 ;;  EEPROM_Add      1   39[COMRAM] unsigned char 
  1649 ;; Return value:  Size  Location     Type
  1650 ;;                  1    wreg      void 
  1651 ;; Registers used:
  1652 ;;		wreg, fsr2l, fsr2h, status,2, status,0, prodl, prodh, cstack
  1653 ;; Tracked objects:
  1654 ;;		On entry : 0/0
  1655 ;;		On exit  : 0/0
  1656 ;;		Unchanged: 0/0
  1657 ;; Data sizes:     COMRAM   BANK0   BANK1   BANK2   BANK3   BANK4   BANK5   BANK6   BANK7   BANK8   BANK9  BANK10  BANK1
      +1  BANK12  BANK13  BANK14  BANK15
  1658 ;;      Params:         2       0       0       0       0       0       0       0       0       0       0       0       
      +0       0       0       0       0
  1659 ;;      Locals:         1       0       0       0       0       0       0       0       0       0       0       0       
      +0       0       0       0       0
  1660 ;;      Temps:          0       0       0       0       0       0       0       0       0       0       0       0       
      +0       0       0       0       0
  1661 ;;      Totals:         3       0       0       0       0       0       0       0       0       0       0       0       
      +0       0       0       0       0
  1662 ;;Total ram usage:        3 bytes
  1663 ;; Hardware stack levels used: 1
  1664 ;; Hardware stack levels required when called: 11
  1665 ;; This function calls:
  1666 ;;		_I2C_Write1ByteRegister
  1667 ;; This function is called by:
  1668 ;;		_main
  1669 ;; This function uses a non-reentrant model
  1670 ;;
  1671                           
  1672                           	psect	text15
  1673   001A6E                     __ptext15:
  1674                           	callstack 0
  1675   001A6E                     _EEPROM_24C02C_Write_Byte:
  1676                           	callstack 19
  1677                           
  1678                           ;incstack = 0
  1679                           ;EEPROM_24C02C_Write_Byte@EEPROM_Add stored from wreg
  1680   001A6E  6E28               	movwf	EEPROM_24C02C_Write_Byte@EEPROM_Add^0,c
  1681   001A70                     
  1682                           ;AECUL/EEPROM_24C02C/EEPROM_24C02C.c: 14:     I2C_Write1ByteRegister(EEPROM_Add,Byte_Add
      +                          ,data);
  1683   001A70  C026  F023         	movff	EEPROM_24C02C_Write_Byte@Byte_Add,I2C_Write1ByteRegister@reg
  1684   001A74  C027  F024         	movff	EEPROM_24C02C_Write_Byte@data,I2C_Write1ByteRegister@data
  1685   001A78  5028               	movf	EEPROM_24C02C_Write_Byte@EEPROM_Add^0,w,c
  1686   001A7A  ECF7  F00A         	call	_I2C_Write1ByteRegister
  1687   001A7E  0012               	return		;funcret
  1688   001A80                     __end_of_EEPROM_24C02C_Write_Byte:
  1689                           	callstack 0
  1690                           
  1691 ;; *************** function _I2C_Write1ByteRegister *****************
  1692 ;; Defined at:
  1693 ;;		line 91 in file "mcc_generated_files/examples/i2c_master_example.c"
  1694 ;; Parameters:    Size  Location     Type
  1695 ;;  address         1    wreg     unsigned char 
  1696 ;;  reg             1   34[COMRAM] unsigned char 
  1697 ;;  data            1   35[COMRAM] unsigned char 
  1698 ;; Auto vars:     Size  Location     Type
  1699 ;;  address         1   36[COMRAM] unsigned char 
  1700 ;; Return value:  Size  Location     Type
  1701 ;;                  1    wreg      void 
  1702 ;; Registers used:
  1703 ;;		wreg, fsr2l, fsr2h, status,2, status,0, prodl, prodh, cstack
  1704 ;; Tracked objects:
  1705 ;;		On entry : 0/0
  1706 ;;		On exit  : 0/0
  1707 ;;		Unchanged: 0/0
  1708 ;; Data sizes:     COMRAM   BANK0   BANK1   BANK2   BANK3   BANK4   BANK5   BANK6   BANK7   BANK8   BANK9  BANK10  BANK1
      +1  BANK12  BANK13  BANK14  BANK15
  1709 ;;      Params:         2       0       0       0       0       0       0       0       0       0       0       0       
      +0       0       0       0       0
  1710 ;;      Locals:         1       0       0       0       0       0       0       0       0       0       0       0       
      +0       0       0       0       0
  1711 ;;      Temps:          0       0       0       0       0       0       0       0       0       0       0       0       
      +0       0       0       0       0
  1712 ;;      Totals:         3       0       0       0       0       0       0       0       0       0       0       0       
      +0       0       0       0       0
  1713 ;;Total ram usage:        3 bytes
  1714 ;; Hardware stack levels used: 1
  1715 ;; Hardware stack levels required when called: 10
  1716 ;; This function calls:
  1717 ;;		_I2C_Close
  1718 ;;		_I2C_MasterWrite
  1719 ;;		_I2C_Open
  1720 ;;		_I2C_SetAddressNackCallback
  1721 ;;		_I2C_SetBuffer
  1722 ;;		_I2C_SetDataCompleteCallback
  1723 ;; This function is called by:
  1724 ;;		_EEPROM_24C02C_Write_Byte
  1725 ;;		_main
  1726 ;; This function uses a non-reentrant model
  1727 ;;
  1728                           
  1729                           	psect	text16
  1730   0015EE                     __ptext16:
  1731                           	callstack 0
  1732   0015EE                     _I2C_Write1ByteRegister:
  1733                           	callstack 20
  1734                           
  1735                           ;incstack = 0
  1736                           ;I2C_Write1ByteRegister@address stored from wreg
  1737   0015EE  6E25               	movwf	I2C_Write1ByteRegister@address^0,c
  1738   0015F0                     l2775:
  1739   0015F0  5025               	movf	I2C_Write1ByteRegister@address^0,w,c
  1740   0015F2  EC35  F009         	call	_I2C_Open
  1741   0015F6  0900               	iorlw	0
  1742   0015F8  B4D8               	btfsc	status,2,c
  1743   0015FA  EF01  F00B         	goto	u791
  1744   0015FE  EF03  F00B         	goto	u790
  1745   001602                     u791:
  1746   001602  EFF8  F00A         	goto	l2775
  1747   001606                     u790:
  1748   001606                     
  1749                           ;mcc_generated_files/examples/i2c_master_example.c: 94:     I2C_SetDataCompleteCallback(
      +                          wr1RegCompleteHandler,&data);
  1750   001606  0E84               	movlw	low _wr1RegCompleteHandler
  1751   001608  6E1F               	movwf	I2C_SetDataCompleteCallback@cb^0,c
  1752   00160A  0E18               	movlw	high _wr1RegCompleteHandler
  1753   00160C  6E20               	movwf	(I2C_SetDataCompleteCallback@cb+1)^0,c
  1754   00160E  0E24               	movlw	low I2C_Write1ByteRegister@data
  1755   001610  6E21               	movwf	I2C_SetDataCompleteCallback@ptr^0,c
  1756   001612  0E00               	movlw	high I2C_Write1ByteRegister@data
  1757   001614  6E22               	movwf	(I2C_SetDataCompleteCallback@ptr+1)^0,c
  1758   001616  ECE0  F00C         	call	_I2C_SetDataCompleteCallback	;wreg free
  1759   00161A                     
  1760                           ;mcc_generated_files/examples/i2c_master_example.c: 95:     I2C_SetBuffer(&reg,1);
  1761   00161A  0E23               	movlw	low I2C_Write1ByteRegister@reg
  1762   00161C  6E1A               	movwf	I2C_SetBuffer@buffer^0,c
  1763   00161E  0E00               	movlw	high I2C_Write1ByteRegister@reg
  1764   001620  6E1B               	movwf	(I2C_SetBuffer@buffer+1)^0,c
  1765   001622  0E00               	movlw	0
  1766   001624  6E1D               	movwf	(I2C_SetBuffer@bufferSize+1)^0,c
  1767   001626  0E01               	movlw	1
  1768   001628  6E1C               	movwf	I2C_SetBuffer@bufferSize^0,c
  1769   00162A  EC9A  F00C         	call	_I2C_SetBuffer	;wreg free
  1770   00162E                     
  1771                           ;mcc_generated_files/examples/i2c_master_example.c: 96:     I2C_SetAddressNackCallback((
      +                          (void*)0),((void*)0));
  1772   00162E  0E00               	movlw	0
  1773   001630  6E1F               	movwf	I2C_SetAddressNackCallback@cb^0,c
  1774   001632  0E00               	movlw	0
  1775   001634  6E20               	movwf	(I2C_SetAddressNackCallback@cb+1)^0,c
  1776   001636  0E00               	movlw	0
  1777   001638  6E21               	movwf	I2C_SetAddressNackCallback@ptr^0,c
  1778   00163A  0E00               	movlw	0
  1779   00163C  6E22               	movwf	(I2C_SetAddressNackCallback@ptr+1)^0,c
  1780   00163E  ECEC  F00C         	call	_I2C_SetAddressNackCallback	;wreg free
  1781   001642                     
  1782                           ;mcc_generated_files/examples/i2c_master_example.c: 97:     I2C_MasterWrite();
  1783   001642  EC88  F00D         	call	_I2C_MasterWrite	;wreg free
  1784   001646                     l2785:
  1785   001646  EC2C  F00C         	call	_I2C_Close	;wreg free
  1786   00164A  06E8               	decf	wreg,f,c
  1787   00164C  B4D8               	btfsc	status,2,c
  1788   00164E  EF2B  F00B         	goto	u801
  1789   001652  EF2D  F00B         	goto	u800
  1790   001656                     u801:
  1791   001656  EF23  F00B         	goto	l2785
  1792   00165A                     u800:
  1793   00165A  0012               	return		;funcret
  1794   00165C                     __end_of_I2C_Write1ByteRegister:
  1795                           	callstack 0
  1796                           
  1797 ;; *************** function _EEPROM_24C02C_Read_Byte *****************
  1798 ;; Defined at:
  1799 ;;		line 18 in file "AECUL/EEPROM_24C02C/EEPROM_24C02C.c"
  1800 ;; Parameters:    Size  Location     Type
  1801 ;;  EEPROM_Add      1    wreg     unsigned char 
  1802 ;;  Byte_Add        1   37[COMRAM] unsigned char 
  1803 ;; Auto vars:     Size  Location     Type
  1804 ;;  EEPROM_Add      1   38[COMRAM] unsigned char 
  1805 ;;  RetVal          1   39[COMRAM] unsigned char 
  1806 ;; Return value:  Size  Location     Type
  1807 ;;                  1    wreg      unsigned char 
  1808 ;; Registers used:
  1809 ;;		wreg, fsr2l, fsr2h, status,2, status,0, prodl, prodh, cstack
  1810 ;; Tracked objects:
  1811 ;;		On entry : 0/0
  1812 ;;		On exit  : 0/0
  1813 ;;		Unchanged: 0/0
  1814 ;; Data sizes:     COMRAM   BANK0   BANK1   BANK2   BANK3   BANK4   BANK5   BANK6   BANK7   BANK8   BANK9  BANK10  BANK1
      +1  BANK12  BANK13  BANK14  BANK15
  1815 ;;      Params:         1       0       0       0       0       0       0       0       0       0       0       0       
      +0       0       0       0       0
  1816 ;;      Locals:         2       0       0       0       0       0       0       0       0       0       0       0       
      +0       0       0       0       0
  1817 ;;      Temps:          0       0       0       0       0       0       0       0       0       0       0       0       
      +0       0       0       0       0
  1818 ;;      Totals:         3       0       0       0       0       0       0       0       0       0       0       0       
      +0       0       0       0       0
  1819 ;;Total ram usage:        3 bytes
  1820 ;; Hardware stack levels used: 1
  1821 ;; Hardware stack levels required when called: 11
  1822 ;; This function calls:
  1823 ;;		_I2C_Read1ByteRegister
  1824 ;; This function is called by:
  1825 ;;		_main
  1826 ;; This function uses a non-reentrant model
  1827 ;;
  1828                           
  1829                           	psect	text17
  1830   001A80                     __ptext17:
  1831                           	callstack 0
  1832   001A80                     _EEPROM_24C02C_Read_Byte:
  1833                           	callstack 19
  1834                           
  1835                           ;incstack = 0
  1836                           ;EEPROM_24C02C_Read_Byte@EEPROM_Add stored from wreg
  1837   001A80  6E27               	movwf	EEPROM_24C02C_Read_Byte@EEPROM_Add^0,c
  1838   001A82                     
  1839                           ;AECUL/EEPROM_24C02C/EEPROM_24C02C.c: 20:     RetVal=I2C_Read1ByteRegister(EEPROM_Add,By
      +                          te_Add);
  1840   001A82  C026  F023         	movff	EEPROM_24C02C_Read_Byte@Byte_Add,I2C_Read1ByteRegister@reg
  1841   001A86  5027               	movf	EEPROM_24C02C_Read_Byte@EEPROM_Add^0,w,c
  1842   001A88  EC85  F00A         	call	_I2C_Read1ByteRegister
  1843   001A8C  6E28               	movwf	EEPROM_24C02C_Read_Byte@RetVal^0,c
  1844   001A8E                     
  1845                           ;AECUL/EEPROM_24C02C/EEPROM_24C02C.c: 21:     return RetVal;
  1846   001A8E  5028               	movf	EEPROM_24C02C_Read_Byte@RetVal^0,w,c
  1847   001A90  0012               	return		;funcret
  1848   001A92                     __end_of_EEPROM_24C02C_Read_Byte:
  1849                           	callstack 0
  1850                           
  1851 ;; *************** function _I2C_Read1ByteRegister *****************
  1852 ;; Defined at:
  1853 ;;		line 63 in file "mcc_generated_files/examples/i2c_master_example.c"
  1854 ;; Parameters:    Size  Location     Type
  1855 ;;  address         1    wreg     unsigned char 
  1856 ;;  reg             1   34[COMRAM] unsigned char 
  1857 ;; Auto vars:     Size  Location     Type
  1858 ;;  address         1   35[COMRAM] unsigned char 
  1859 ;;  returnValue     1   36[COMRAM] unsigned char 
  1860 ;; Return value:  Size  Location     Type
  1861 ;;                  1    wreg      unsigned char 
  1862 ;; Registers used:
  1863 ;;		wreg, fsr2l, fsr2h, status,2, status,0, prodl, prodh, cstack
  1864 ;; Tracked objects:
  1865 ;;		On entry : 0/0
  1866 ;;		On exit  : 0/0
  1867 ;;		Unchanged: 0/0
  1868 ;; Data sizes:     COMRAM   BANK0   BANK1   BANK2   BANK3   BANK4   BANK5   BANK6   BANK7   BANK8   BANK9  BANK10  BANK1
      +1  BANK12  BANK13  BANK14  BANK15
  1869 ;;      Params:         1       0       0       0       0       0       0       0       0       0       0       0       
      +0       0       0       0       0
  1870 ;;      Locals:         2       0       0       0       0       0       0       0       0       0       0       0       
      +0       0       0       0       0
  1871 ;;      Temps:          0       0       0       0       0       0       0       0       0       0       0       0       
      +0       0       0       0       0
  1872 ;;      Totals:         3       0       0       0       0       0       0       0       0       0       0       0       
      +0       0       0       0       0
  1873 ;;Total ram usage:        3 bytes
  1874 ;; Hardware stack levels used: 1
  1875 ;; Hardware stack levels required when called: 10
  1876 ;; This function calls:
  1877 ;;		_I2C_Close
  1878 ;;		_I2C_MasterWrite
  1879 ;;		_I2C_Open
  1880 ;;		_I2C_SetAddressNackCallback
  1881 ;;		_I2C_SetBuffer
  1882 ;;		_I2C_SetDataCompleteCallback
  1883 ;; This function is called by:
  1884 ;;		_EEPROM_24C02C_Read_Byte
  1885 ;;		_Temp_Sensor_TC74_ReadValue
  1886 ;;		_RealTimeClock_Get_Date_Time
  1887 ;; This function uses a non-reentrant model
  1888 ;;
  1889                           
  1890                           	psect	text18
  1891   00150A                     __ptext18:
  1892                           	callstack 0
  1893   00150A                     _I2C_Read1ByteRegister:
  1894                           	callstack 19
  1895                           
  1896                           ;incstack = 0
  1897                           ;I2C_Read1ByteRegister@address stored from wreg
  1898   00150A  6E24               	movwf	I2C_Read1ByteRegister@address^0,c
  1899   00150C                     
  1900                           ;mcc_generated_files/examples/i2c_master_example.c: 63: uint8_t I2C_Read1ByteRegister(i2
      +                          c_address_t address, uint8_t reg);mcc_generated_files/examples/i2c_master_example.c: 64:
      +                           {;mcc_generated_files/examples/i2c_master_example.c: 65:     uint8_t returnValue = 0x00
      +                          ;
  1901   00150C  0E00               	movlw	0
  1902   00150E  6E25               	movwf	I2C_Read1ByteRegister@returnValue^0,c
  1903   001510                     l2789:
  1904   001510  5024               	movf	I2C_Read1ByteRegister@address^0,w,c
  1905   001512  EC35  F009         	call	_I2C_Open
  1906   001516  0900               	iorlw	0
  1907   001518  B4D8               	btfsc	status,2,c
  1908   00151A  EF91  F00A         	goto	u811
  1909   00151E  EF93  F00A         	goto	u810
  1910   001522                     u811:
  1911   001522  EF88  F00A         	goto	l2789
  1912   001526                     u810:
  1913   001526                     
  1914                           ;mcc_generated_files/examples/i2c_master_example.c: 68:     I2C_SetDataCompleteCallback(
      +                          rd1RegCompleteHandler,&returnValue);
  1915   001526  0EDC               	movlw	low _rd1RegCompleteHandler
  1916   001528  6E1F               	movwf	I2C_SetDataCompleteCallback@cb^0,c
  1917   00152A  0E18               	movlw	high _rd1RegCompleteHandler
  1918   00152C  6E20               	movwf	(I2C_SetDataCompleteCallback@cb+1)^0,c
  1919   00152E  0E25               	movlw	low I2C_Read1ByteRegister@returnValue
  1920   001530  6E21               	movwf	I2C_SetDataCompleteCallback@ptr^0,c
  1921   001532  0E00               	movlw	high I2C_Read1ByteRegister@returnValue
  1922   001534  6E22               	movwf	(I2C_SetDataCompleteCallback@ptr+1)^0,c
  1923   001536  ECE0  F00C         	call	_I2C_SetDataCompleteCallback	;wreg free
  1924   00153A                     
  1925                           ;mcc_generated_files/examples/i2c_master_example.c: 69:     I2C_SetBuffer(&reg,1);
  1926   00153A  0E23               	movlw	low I2C_Read1ByteRegister@reg
  1927   00153C  6E1A               	movwf	I2C_SetBuffer@buffer^0,c
  1928   00153E  0E00               	movlw	high I2C_Read1ByteRegister@reg
  1929   001540  6E1B               	movwf	(I2C_SetBuffer@buffer+1)^0,c
  1930   001542  0E00               	movlw	0
  1931   001544  6E1D               	movwf	(I2C_SetBuffer@bufferSize+1)^0,c
  1932   001546  0E01               	movlw	1
  1933   001548  6E1C               	movwf	I2C_SetBuffer@bufferSize^0,c
  1934   00154A  EC9A  F00C         	call	_I2C_SetBuffer	;wreg free
  1935   00154E                     
  1936                           ;mcc_generated_files/examples/i2c_master_example.c: 70:     I2C_SetAddressNackCallback((
      +                          (void*)0),((void*)0));
  1937   00154E  0E00               	movlw	0
  1938   001550  6E1F               	movwf	I2C_SetAddressNackCallback@cb^0,c
  1939   001552  0E00               	movlw	0
  1940   001554  6E20               	movwf	(I2C_SetAddressNackCallback@cb+1)^0,c
  1941   001556  0E00               	movlw	0
  1942   001558  6E21               	movwf	I2C_SetAddressNackCallback@ptr^0,c
  1943   00155A  0E00               	movlw	0
  1944   00155C  6E22               	movwf	(I2C_SetAddressNackCallback@ptr+1)^0,c
  1945   00155E  ECEC  F00C         	call	_I2C_SetAddressNackCallback	;wreg free
  1946   001562                     
  1947                           ;mcc_generated_files/examples/i2c_master_example.c: 71:     I2C_MasterWrite();
  1948   001562  EC88  F00D         	call	_I2C_MasterWrite	;wreg free
  1949   001566                     l2799:
  1950   001566  EC2C  F00C         	call	_I2C_Close	;wreg free
  1951   00156A  06E8               	decf	wreg,f,c
  1952   00156C  B4D8               	btfsc	status,2,c
  1953   00156E  EFBB  F00A         	goto	u821
  1954   001572  EFBD  F00A         	goto	u820
  1955   001576                     u821:
  1956   001576  EFB3  F00A         	goto	l2799
  1957   00157A                     u820:
  1958   00157A                     
  1959                           ;mcc_generated_files/examples/i2c_master_example.c: 74:     return returnValue;
  1960   00157A  5025               	movf	I2C_Read1ByteRegister@returnValue^0,w,c
  1961   00157C  0012               	return		;funcret
  1962   00157E                     __end_of_I2C_Read1ByteRegister:
  1963                           	callstack 0
  1964                           
  1965 ;; *************** function _I2C_SetDataCompleteCallback *****************
  1966 ;; Defined at:
  1967 ;;		line 274 in file "mcc_generated_files/i2c_master.c"
  1968 ;; Parameters:    Size  Location     Type
  1969 ;;  cb              2   30[COMRAM] PTR FTN(PTR void ,)enum 
  1970 ;;		 -> NULL(1), rdBlkRegCompleteHandler(1), wr2RegCompleteHandler(1), wr1RegCompleteHandler(1), 
  1971 ;;		 -> rd2RegCompleteHandler(1), rd1RegCompleteHandler(1), 
  1972 ;;  ptr             2   32[COMRAM] PTR void 
  1973 ;;		 -> I2C_ReadDataBlock@bufferBlock(4), I2C_Write2ByteRegister@data(2), I2C_Write1ByteRegister@data(1), I2C_Read2ByteR
      +egister@returnValue(2), 
  1974 ;;		 -> NULL(0), I2C_Read1ByteRegister@returnValue(1), 
  1975 ;; Auto vars:     Size  Location     Type
  1976 ;;		None
  1977 ;; Return value:  Size  Location     Type
  1978 ;;                  1    wreg      void 
  1979 ;; Registers used:
  1980 ;;		wreg, fsr2l, fsr2h, status,2, status,0, prodl, prodh, cstack
  1981 ;; Tracked objects:
  1982 ;;		On entry : 0/0
  1983 ;;		On exit  : 0/0
  1984 ;;		Unchanged: 0/0
  1985 ;; Data sizes:     COMRAM   BANK0   BANK1   BANK2   BANK3   BANK4   BANK5   BANK6   BANK7   BANK8   BANK9  BANK10  BANK1
      +1  BANK12  BANK13  BANK14  BANK15
  1986 ;;      Params:         4       0       0       0       0       0       0       0       0       0       0       0       
      +0       0       0       0       0
  1987 ;;      Locals:         0       0       0       0       0       0       0       0       0       0       0       0       
      +0       0       0       0       0
  1988 ;;      Temps:          0       0       0       0       0       0       0       0       0       0       0       0       
      +0       0       0       0       0
  1989 ;;      Totals:         4       0       0       0       0       0       0       0       0       0       0       0       
      +0       0       0       0       0
  1990 ;;Total ram usage:        4 bytes
  1991 ;; Hardware stack levels used: 1
  1992 ;; Hardware stack levels required when called: 8
  1993 ;; This function calls:
  1994 ;;		_I2C_SetCallback
  1995 ;; This function is called by:
  1996 ;;		_I2C_Read1ByteRegister
  1997 ;;		_I2C_Write1ByteRegister
  1998 ;;		_I2C_Read2ByteRegister
  1999 ;;		_I2C_Write2ByteRegister
  2000 ;;		_I2C_ReadDataBlock
  2001 ;; This function uses a non-reentrant model
  2002 ;;
  2003                           
  2004                           	psect	text19
  2005   0019C0                     __ptext19:
  2006                           	callstack 0
  2007   0019C0                     _I2C_SetDataCompleteCallback:
  2008                           	callstack 20
  2009   0019C0                     
  2010                           ;mcc_generated_files/i2c_master.c: 274: void I2C_SetDataCompleteCallback(i2c_callback_t 
      +                          cb, void *ptr);mcc_generated_files/i2c_master.c: 275: {;mcc_generated_files/i2c_master.c
      +                          : 276:     I2C_SetCallback(I2C_DATA_COMPLETE, cb, ptr);
  2011   0019C0  C01F  F01A         	movff	I2C_SetDataCompleteCallback@cb,I2C_SetCallback@cb
  2012   0019C4  C020  F01B         	movff	I2C_SetDataCompleteCallback@cb+1,I2C_SetCallback@cb+1
  2013   0019C8  C021  F01C         	movff	I2C_SetDataCompleteCallback@ptr,I2C_SetCallback@ptr
  2014   0019CC  C022  F01D         	movff	I2C_SetDataCompleteCallback@ptr+1,I2C_SetCallback@ptr+1
  2015   0019D0  0E00               	movlw	0
  2016   0019D2  EC0F  F00A         	call	_I2C_SetCallback
  2017   0019D6  0012               	return		;funcret
  2018   0019D8                     __end_of_I2C_SetDataCompleteCallback:
  2019                           	callstack 0
  2020                           
  2021 ;; *************** function _I2C_SetBuffer *****************
  2022 ;; Defined at:
  2023 ;;		line 264 in file "mcc_generated_files/i2c_master.c"
  2024 ;; Parameters:    Size  Location     Type
  2025 ;;  buffer          2   25[COMRAM] PTR void 
  2026 ;;		 -> I2C_ReadDataBlock@reg(1), I2C_ReadDataBlock@bufferBlock(4), I2C_Write2ByteRegister@reg(1), I2C_Write2ByteRegiste
      +r@data(2), 
  2027 ;;		 -> I2C_Write1ByteRegister@reg(1), I2C_Write1ByteRegister@data(1), I2C_Read2ByteRegister@reg(1), I2C_Read2ByteRegist
      +er@returnValue(2), 
  2028 ;;		 -> NULL(0), I2C_Read1ByteRegister@reg(1), I2C_Read1ByteRegister@returnValue(1), 
  2029 ;;  bufferSize      2   27[COMRAM] unsigned int 
  2030 ;; Auto vars:     Size  Location     Type
  2031 ;;		None
  2032 ;; Return value:  Size  Location     Type
  2033 ;;                  1    wreg      void 
  2034 ;; Registers used:
  2035 ;;		wreg, status,2, status,0
  2036 ;; Tracked objects:
  2037 ;;		On entry : 0/0
  2038 ;;		On exit  : 0/0
  2039 ;;		Unchanged: 0/0
  2040 ;; Data sizes:     COMRAM   BANK0   BANK1   BANK2   BANK3   BANK4   BANK5   BANK6   BANK7   BANK8   BANK9  BANK10  BANK1
      +1  BANK12  BANK13  BANK14  BANK15
  2041 ;;      Params:         4       0       0       0       0       0       0       0       0       0       0       0       
      +0       0       0       0       0
  2042 ;;      Locals:         0       0       0       0       0       0       0       0       0       0       0       0       
      +0       0       0       0       0
  2043 ;;      Temps:          0       0       0       0       0       0       0       0       0       0       0       0       
      +0       0       0       0       0
  2044 ;;      Totals:         4       0       0       0       0       0       0       0       0       0       0       0       
      +0       0       0       0       0
  2045 ;;Total ram usage:        4 bytes
  2046 ;; Hardware stack levels used: 1
  2047 ;; Hardware stack levels required when called: 7
  2048 ;; This function calls:
  2049 ;;		Nothing
  2050 ;; This function is called by:
  2051 ;;		_I2C_Read1ByteRegister
  2052 ;;		_I2C_Write1ByteRegister
  2053 ;;		_I2C_Read2ByteRegister
  2054 ;;		_I2C_Write2ByteRegister
  2055 ;;		_I2C_WriteNBytes
  2056 ;;		_I2C_ReadNBytes
  2057 ;;		_I2C_ReadDataBlock
  2058 ;; This function uses a non-reentrant model
  2059 ;;
  2060                           
  2061                           	psect	text20
  2062   001934                     __ptext20:
  2063                           	callstack 0
  2064   001934                     _I2C_SetBuffer:
  2065                           	callstack 21
  2066   001934                     
  2067                           ;mcc_generated_files/i2c_master.c: 264: void I2C_SetBuffer(void *buffer, size_t bufferSi
      +                          ze);mcc_generated_files/i2c_master.c: 265: {;mcc_generated_files/i2c_master.c: 266:     
      +                          if(I2C_Status.bufferFree)
  2068   001934  0100               	movlb	0	; () banked
  2069   001936  A783               	btfss	(_I2C_Status+35)& (0+255),3,b
  2070   001938  EFA0  F00C         	goto	u701
  2071   00193C  EFA2  F00C         	goto	u700
  2072   001940                     u701:
  2073   001940  EFAB  F00C         	goto	l303
  2074   001944                     u700:
  2075   001944                     
  2076                           ; BSR set to: 0
  2077                           ;mcc_generated_files/i2c_master.c: 267:     {;mcc_generated_files/i2c_master.c: 268:    
      +                               I2C_Status.data_ptr = buffer;
  2078   001944  C01A  F07D         	movff	I2C_SetBuffer@buffer,_I2C_Status+29
  2079   001948  C01B  F07E         	movff	I2C_SetBuffer@buffer+1,_I2C_Status+30
  2080   00194C                     
  2081                           ; BSR set to: 0
  2082                           ;mcc_generated_files/i2c_master.c: 269:         I2C_Status.data_length = bufferSize;
  2083   00194C  C01C  F07F         	movff	I2C_SetBuffer@bufferSize,_I2C_Status+31
  2084   001950  C01D  F080         	movff	I2C_SetBuffer@bufferSize+1,_I2C_Status+32
  2085   001954                     
  2086                           ; BSR set to: 0
  2087                           ;mcc_generated_files/i2c_master.c: 270:         I2C_Status.bufferFree = 0;
  2088   001954  9783               	bcf	(_I2C_Status+35)& (0+255),3,b
  2089   001956                     l303:
  2090                           
  2091                           ; BSR set to: 0
  2092   001956  0012               	return		;funcret
  2093   001958                     __end_of_I2C_SetBuffer:
  2094                           	callstack 0
  2095                           
  2096 ;; *************** function _I2C_SetAddressNackCallback *****************
  2097 ;; Defined at:
  2098 ;;		line 284 in file "mcc_generated_files/i2c_master.c"
  2099 ;; Parameters:    Size  Location     Type
  2100 ;;  cb              2   30[COMRAM] PTR FTN(PTR void ,)enum 
  2101 ;;		 -> NULL(1), 
  2102 ;;  ptr             2   32[COMRAM] PTR void 
  2103 ;;		 -> NULL(0), 
  2104 ;; Auto vars:     Size  Location     Type
  2105 ;;		None
  2106 ;; Return value:  Size  Location     Type
  2107 ;;                  1    wreg      void 
  2108 ;; Registers used:
  2109 ;;		wreg, fsr2l, fsr2h, status,2, status,0, prodl, prodh, cstack
  2110 ;; Tracked objects:
  2111 ;;		On entry : 0/0
  2112 ;;		On exit  : 0/0
  2113 ;;		Unchanged: 0/0
  2114 ;; Data sizes:     COMRAM   BANK0   BANK1   BANK2   BANK3   BANK4   BANK5   BANK6   BANK7   BANK8   BANK9  BANK10  BANK1
      +1  BANK12  BANK13  BANK14  BANK15
  2115 ;;      Params:         4       0       0       0       0       0       0       0       0       0       0       0       
      +0       0       0       0       0
  2116 ;;      Locals:         0       0       0       0       0       0       0       0       0       0       0       0       
      +0       0       0       0       0
  2117 ;;      Temps:          0       0       0       0       0       0       0       0       0       0       0       0       
      +0       0       0       0       0
  2118 ;;      Totals:         4       0       0       0       0       0       0       0       0       0       0       0       
      +0       0       0       0       0
  2119 ;;Total ram usage:        4 bytes
  2120 ;; Hardware stack levels used: 1
  2121 ;; Hardware stack levels required when called: 8
  2122 ;; This function calls:
  2123 ;;		_I2C_SetCallback
  2124 ;; This function is called by:
  2125 ;;		_I2C_Read1ByteRegister
  2126 ;;		_I2C_Write1ByteRegister
  2127 ;;		_I2C_Read2ByteRegister
  2128 ;;		_I2C_Write2ByteRegister
  2129 ;;		_I2C_WriteNBytes
  2130 ;;		_I2C_ReadDataBlock
  2131 ;; This function uses a non-reentrant model
  2132 ;;
  2133                           
  2134                           	psect	text21
  2135   0019D8                     __ptext21:
  2136                           	callstack 0
  2137   0019D8                     _I2C_SetAddressNackCallback:
  2138                           	callstack 20
  2139   0019D8                     
  2140                           ;mcc_generated_files/i2c_master.c: 284: void I2C_SetAddressNackCallback(i2c_callback_t c
      +                          b, void *ptr);mcc_generated_files/i2c_master.c: 285: {;mcc_generated_files/i2c_master.c:
      +                           286:     I2C_SetCallback(I2C_ADDR_NACK, cb, ptr);
  2141   0019D8  C01F  F01A         	movff	I2C_SetAddressNackCallback@cb,I2C_SetCallback@cb
  2142   0019DC  C020  F01B         	movff	I2C_SetAddressNackCallback@cb+1,I2C_SetCallback@cb+1
  2143   0019E0  C021  F01C         	movff	I2C_SetAddressNackCallback@ptr,I2C_SetCallback@ptr
  2144   0019E4  C022  F01D         	movff	I2C_SetAddressNackCallback@ptr+1,I2C_SetCallback@ptr+1
  2145   0019E8  0E02               	movlw	2
  2146   0019EA  EC0F  F00A         	call	_I2C_SetCallback
  2147   0019EE  0012               	return		;funcret
  2148   0019F0                     __end_of_I2C_SetAddressNackCallback:
  2149                           	callstack 0
  2150                           
  2151 ;; *************** function _I2C_SetCallback *****************
  2152 ;; Defined at:
  2153 ;;		line 304 in file "mcc_generated_files/i2c_master.c"
  2154 ;; Parameters:    Size  Location     Type
  2155 ;;  idx             1    wreg     enum E3139
  2156 ;;  cb              2   25[COMRAM] PTR FTN(PTR void ,)enum 
  2157 ;;		 -> NULL(1), rdBlkRegCompleteHandler(1), wr2RegCompleteHandler(1), wr1RegCompleteHandler(1), 
  2158 ;;		 -> rd2RegCompleteHandler(1), rd1RegCompleteHandler(1), 
  2159 ;;  ptr             2   27[COMRAM] PTR void 
  2160 ;;		 -> I2C_ReadDataBlock@bufferBlock(4), I2C_Write2ByteRegister@data(2), I2C_Write1ByteRegister@data(1), I2C_Read2ByteR
      +egister@returnValue(2), 
  2161 ;;		 -> NULL(0), I2C_Read1ByteRegister@returnValue(1), 
  2162 ;; Auto vars:     Size  Location     Type
  2163 ;;  idx             1   29[COMRAM] enum E3139
  2164 ;; Return value:  Size  Location     Type
  2165 ;;                  1    wreg      void 
  2166 ;; Registers used:
  2167 ;;		wreg, fsr2l, fsr2h, status,2, status,0, prodl, prodh
  2168 ;; Tracked objects:
  2169 ;;		On entry : 0/0
  2170 ;;		On exit  : 0/0
  2171 ;;		Unchanged: 0/0
  2172 ;; Data sizes:     COMRAM   BANK0   BANK1   BANK2   BANK3   BANK4   BANK5   BANK6   BANK7   BANK8   BANK9  BANK10  BANK1
      +1  BANK12  BANK13  BANK14  BANK15
  2173 ;;      Params:         4       0       0       0       0       0       0       0       0       0       0       0       
      +0       0       0       0       0
  2174 ;;      Locals:         1       0       0       0       0       0       0       0       0       0       0       0       
      +0       0       0       0       0
  2175 ;;      Temps:          0       0       0       0       0       0       0       0       0       0       0       0       
      +0       0       0       0       0
  2176 ;;      Totals:         5       0       0       0       0       0       0       0       0       0       0       0       
      +0       0       0       0       0
  2177 ;;Total ram usage:        5 bytes
  2178 ;; Hardware stack levels used: 1
  2179 ;; Hardware stack levels required when called: 7
  2180 ;; This function calls:
  2181 ;;		Nothing
  2182 ;; This function is called by:
  2183 ;;		_I2C_SetDataCompleteCallback
  2184 ;;		_I2C_SetAddressNackCallback
  2185 ;;		_I2C_SetWriteCollisionCallback
  2186 ;;		_I2C_SetDataNackCallback
  2187 ;;		_I2C_SetTimeoutCallback
  2188 ;; This function uses a non-reentrant model
  2189 ;;
  2190                           
  2191                           	psect	text22
  2192   00141E                     __ptext22:
  2193                           	callstack 0
  2194   00141E                     _I2C_SetCallback:
  2195                           	callstack 20
  2196                           
  2197                           ;incstack = 0
  2198                           ;I2C_SetCallback@idx stored from wreg
  2199   00141E  6E1E               	movwf	I2C_SetCallback@idx^0,c
  2200   001420                     
  2201                           ;mcc_generated_files/i2c_master.c: 304: static void I2C_SetCallback(i2c_callbackIndex_t 
      +                          idx, i2c_callback_t cb, void *ptr);mcc_generated_files/i2c_master.c: 305: {;mcc_generate
      +                          d_files/i2c_master.c: 306:     if(cb)
  2202   001420  501A               	movf	I2C_SetCallback@cb^0,w,c
  2203   001422  101B               	iorwf	(I2C_SetCallback@cb+1)^0,w,c
  2204   001424  B4D8               	btfsc	status,2,c
  2205   001426  EF17  F00A         	goto	u671
  2206   00142A  EF19  F00A         	goto	u670
  2207   00142E                     u671:
  2208   00142E  EF33  F00A         	goto	l2467
  2209   001432                     u670:
  2210   001432                     
  2211                           ;mcc_generated_files/i2c_master.c: 307:     {;mcc_generated_files/i2c_master.c: 308:    
      +                               I2C_Status.callbackTable[idx] = cb;
  2212   001432  501E               	movf	I2C_SetCallback@idx^0,w,c
  2213   001434  0D02               	mullw	2
  2214   001436  0E60               	movlw	low _I2C_Status
  2215   001438  24F3               	addwf	243,w,c
  2216   00143A  6ED9               	movwf	fsr2l,c
  2217   00143C  0E00               	movlw	high _I2C_Status
  2218   00143E  20F4               	addwfc	prodh,w,c
  2219   001440  6EDA               	movwf	fsr2h,c
  2220   001442  C01A  FFDE         	movff	I2C_SetCallback@cb,postinc2
  2221   001446  C01B  FFDD         	movff	I2C_SetCallback@cb+1,postdec2
  2222                           
  2223                           ;mcc_generated_files/i2c_master.c: 309:         I2C_Status.callbackPayload[idx] = ptr;
  2224   00144A  501E               	movf	I2C_SetCallback@idx^0,w,c
  2225   00144C  0D02               	mullw	2
  2226   00144E  0E6C               	movlw	low (_I2C_Status+12)
  2227   001450  24F3               	addwf	243,w,c
  2228   001452  6ED9               	movwf	fsr2l,c
  2229   001454  0E00               	movlw	high (_I2C_Status+12)
  2230   001456  20F4               	addwfc	prodh,w,c
  2231   001458  6EDA               	movwf	fsr2h,c
  2232   00145A  C01C  FFDE         	movff	I2C_SetCallback@ptr,postinc2
  2233   00145E  C01D  FFDD         	movff	I2C_SetCallback@ptr+1,postdec2
  2234                           
  2235                           ;mcc_generated_files/i2c_master.c: 310:     }
  2236   001462  EF49  F00A         	goto	l326
  2237   001466                     l2467:
  2238                           
  2239                           ;mcc_generated_files/i2c_master.c: 312:     {;mcc_generated_files/i2c_master.c: 313:    
      +                               I2C_Status.callbackTable[idx] = I2C_CallbackReturnStop;
  2240   001466  501E               	movf	I2C_SetCallback@idx^0,w,c
  2241   001468  0D02               	mullw	2
  2242   00146A  0E60               	movlw	low _I2C_Status
  2243   00146C  24F3               	addwf	243,w,c
  2244   00146E  6ED9               	movwf	fsr2l,c
  2245   001470  0E00               	movlw	high _I2C_Status
  2246   001472  20F4               	addwfc	prodh,w,c
  2247   001474  6EDA               	movwf	fsr2h,c
  2248   001476  0E92               	movlw	low _I2C_CallbackReturnStop
  2249   001478  6EDE               	movwf	postinc2,c
  2250   00147A  0E1B               	movlw	high _I2C_CallbackReturnStop
  2251   00147C  6EDD               	movwf	postdec2,c
  2252                           
  2253                           ;mcc_generated_files/i2c_master.c: 314:         I2C_Status.callbackPayload[idx] = ((void
      +                          *)0);
  2254   00147E  501E               	movf	I2C_SetCallback@idx^0,w,c
  2255   001480  0D02               	mullw	2
  2256   001482  0E6C               	movlw	low (_I2C_Status+12)
  2257   001484  24F3               	addwf	243,w,c
  2258   001486  6ED9               	movwf	fsr2l,c
  2259   001488  0E00               	movlw	high (_I2C_Status+12)
  2260   00148A  20F4               	addwfc	prodh,w,c
  2261   00148C  6EDA               	movwf	fsr2h,c
  2262   00148E  6ADE               	clrf	postinc2,c
  2263   001490  6ADD               	clrf	postdec2,c
  2264   001492                     l326:
  2265   001492  0012               	return		;funcret
  2266   001494                     __end_of_I2C_SetCallback:
  2267                           	callstack 0
  2268                           
  2269 ;; *************** function _I2C_Open *****************
  2270 ;; Defined at:
  2271 ;;		line 176 in file "mcc_generated_files/i2c_master.c"
  2272 ;; Parameters:    Size  Location     Type
  2273 ;;  address         1    wreg     unsigned char 
  2274 ;; Auto vars:     Size  Location     Type
  2275 ;;  address         1   27[COMRAM] unsigned char 
  2276 ;;  returnValue     1   28[COMRAM] enum E358
  2277 ;; Return value:  Size  Location     Type
  2278 ;;                  1    wreg      enum E358
  2279 ;; Registers used:
  2280 ;;		wreg, status,2, status,0, cstack
  2281 ;; Tracked objects:
  2282 ;;		On entry : 0/0
  2283 ;;		On exit  : 0/0
  2284 ;;		Unchanged: 0/0
  2285 ;; Data sizes:     COMRAM   BANK0   BANK1   BANK2   BANK3   BANK4   BANK5   BANK6   BANK7   BANK8   BANK9  BANK10  BANK1
      +1  BANK12  BANK13  BANK14  BANK15
  2286 ;;      Params:         0       0       0       0       0       0       0       0       0       0       0       0       
      +0       0       0       0       0
  2287 ;;      Locals:         2       0       0       0       0       0       0       0       0       0       0       0       
      +0       0       0       0       0
  2288 ;;      Temps:          0       0       0       0       0       0       0       0       0       0       0       0       
      +0       0       0       0       0
  2289 ;;      Totals:         2       0       0       0       0       0       0       0       0       0       0       0       
      +0       0       0       0       0
  2290 ;;Total ram usage:        2 bytes
  2291 ;; Hardware stack levels used: 1
  2292 ;; Hardware stack levels required when called: 8
  2293 ;; This function calls:
  2294 ;;		_I2C_MasterClearIrq
  2295 ;;		_I2C_MasterEnableIrq
  2296 ;;		_I2C_MasterOpen
  2297 ;;		_I2C_SetInterruptHandler
  2298 ;; This function is called by:
  2299 ;;		_I2C_Read1ByteRegister
  2300 ;;		_I2C_Write1ByteRegister
  2301 ;;		_I2C_Read2ByteRegister
  2302 ;;		_I2C_Write2ByteRegister
  2303 ;;		_I2C_WriteNBytes
  2304 ;;		_I2C_ReadNBytes
  2305 ;;		_I2C_ReadDataBlock
  2306 ;; This function uses a non-reentrant model
  2307 ;;
  2308                           
  2309                           	psect	text23
  2310   00126A                     __ptext23:
  2311                           	callstack 0
  2312   00126A                     _I2C_Open:
  2313                           	callstack 20
  2314                           
  2315                           ;incstack = 0
  2316                           ;I2C_Open@address stored from wreg
  2317   00126A  6E1C               	movwf	I2C_Open@address^0,c
  2318   00126C                     
  2319                           ;mcc_generated_files/i2c_master.c: 176: i2c_error_t I2C_Open(i2c_address_t address);mcc_
      +                          generated_files/i2c_master.c: 177: {;mcc_generated_files/i2c_master.c: 178:     i2c_erro
      +                          r_t returnValue = I2C_BUSY;
  2320   00126C  0E01               	movlw	1
  2321   00126E  6E1D               	movwf	I2C_Open@returnValue^0,c
  2322   001270                     
  2323                           ;mcc_generated_files/i2c_master.c: 180:     if(!I2C_Status.inUse)
  2324   001270  0100               	movlb	0	; () banked
  2325   001272  B583               	btfsc	(_I2C_Status+35)& (0+255),2,b
  2326   001274  EF3E  F009         	goto	u691
  2327   001278  EF40  F009         	goto	u690
  2328   00127C                     u691:
  2329   00127C  EF82  F009         	goto	l2577
  2330   001280                     u690:
  2331   001280                     
  2332                           ; BSR set to: 0
  2333                           ;mcc_generated_files/i2c_master.c: 181:     {;mcc_generated_files/i2c_master.c: 182:    
      +                               I2C_Status.address = address;
  2334   001280  C01C  F07C         	movff	I2C_Open@address,_I2C_Status+28
  2335   001284                     
  2336                           ; BSR set to: 0
  2337                           ;mcc_generated_files/i2c_master.c: 183:         I2C_Status.busy = 0;
  2338   001284  9383               	bcf	(_I2C_Status+35)& (0+255),1,b
  2339   001286                     
  2340                           ; BSR set to: 0
  2341                           ;mcc_generated_files/i2c_master.c: 184:         I2C_Status.inUse = 1;
  2342   001286  8583               	bsf	(_I2C_Status+35)& (0+255),2,b
  2343   001288                     
  2344                           ; BSR set to: 0
  2345                           ;mcc_generated_files/i2c_master.c: 185:         I2C_Status.addressNackCheck = 0;
  2346   001288  9183               	bcf	(_I2C_Status+35)& (0+255),0,b
  2347   00128A                     
  2348                           ; BSR set to: 0
  2349                           ;mcc_generated_files/i2c_master.c: 186:         I2C_Status.state = I2C_RESET;
  2350   00128A  0E0E               	movlw	14
  2351   00128C  6F81               	movwf	(_I2C_Status+33)& (0+255),b
  2352   00128E                     
  2353                           ; BSR set to: 0
  2354                           ;mcc_generated_files/i2c_master.c: 187:         I2C_Status.time_out_value = 500;
  2355   00128E  0E01               	movlw	1
  2356   001290  6F7B               	movwf	(_I2C_Status+27)& (0+255),b
  2357   001292  0EF4               	movlw	244
  2358   001294  6F7A               	movwf	(_I2C_Status+26)& (0+255),b
  2359   001296                     
  2360                           ; BSR set to: 0
  2361                           ;mcc_generated_files/i2c_master.c: 188:         I2C_Status.bufferFree = 1;
  2362   001296  8783               	bsf	(_I2C_Status+35)& (0+255),3,b
  2363   001298                     
  2364                           ; BSR set to: 0
  2365                           ;mcc_generated_files/i2c_master.c: 191:         I2C_Status.callbackTable[I2C_DATA_COMPLE
      +                          TE]=I2C_CallbackReturnStop;
  2366   001298  0E92               	movlw	low _I2C_CallbackReturnStop
  2367   00129A  6F60               	movwf	_I2C_Status& (0+255),b
  2368   00129C  0E1B               	movlw	high _I2C_CallbackReturnStop
  2369   00129E  6F61               	movwf	(_I2C_Status+1)& (0+255),b
  2370   0012A0                     
  2371                           ; BSR set to: 0
  2372                           ;mcc_generated_files/i2c_master.c: 192:         I2C_Status.callbackPayload[I2C_DATA_COMP
      +                          LETE] = ((void*)0);
  2373   0012A0  0E00               	movlw	0
  2374   0012A2  6F6C               	movwf	(_I2C_Status+12)& (0+255),b
  2375   0012A4  0E00               	movlw	0
  2376   0012A6  6F6D               	movwf	(_I2C_Status+13)& (0+255),b
  2377   0012A8                     
  2378                           ; BSR set to: 0
  2379                           ;mcc_generated_files/i2c_master.c: 193:         I2C_Status.callbackTable[I2C_WRITE_COLLI
      +                          SION]=I2C_CallbackReturnStop;
  2380   0012A8  0E92               	movlw	low _I2C_CallbackReturnStop
  2381   0012AA  6F62               	movwf	(_I2C_Status+2)& (0+255),b
  2382   0012AC  0E1B               	movlw	high _I2C_CallbackReturnStop
  2383   0012AE  6F63               	movwf	(_I2C_Status+3)& (0+255),b
  2384   0012B0                     
  2385                           ; BSR set to: 0
  2386                           ;mcc_generated_files/i2c_master.c: 194:         I2C_Status.callbackPayload[I2C_WRITE_COL
      +                          LISION] = ((void*)0);
  2387   0012B0  0E00               	movlw	0
  2388   0012B2  6F6E               	movwf	(_I2C_Status+14)& (0+255),b
  2389   0012B4  0E00               	movlw	0
  2390   0012B6  6F6F               	movwf	(_I2C_Status+15)& (0+255),b
  2391   0012B8                     
  2392                           ; BSR set to: 0
  2393                           ;mcc_generated_files/i2c_master.c: 195:         I2C_Status.callbackTable[I2C_ADDR_NACK]=
      +                          I2C_CallbackReturnStop;
  2394   0012B8  0E92               	movlw	low _I2C_CallbackReturnStop
  2395   0012BA  6F64               	movwf	(_I2C_Status+4)& (0+255),b
  2396   0012BC  0E1B               	movlw	high _I2C_CallbackReturnStop
  2397   0012BE  6F65               	movwf	(_I2C_Status+5)& (0+255),b
  2398   0012C0                     
  2399                           ; BSR set to: 0
  2400                           ;mcc_generated_files/i2c_master.c: 196:         I2C_Status.callbackPayload[I2C_ADDR_NACK
      +                          ] = ((void*)0);
  2401   0012C0  0E00               	movlw	0
  2402   0012C2  6F70               	movwf	(_I2C_Status+16)& (0+255),b
  2403   0012C4  0E00               	movlw	0
  2404   0012C6  6F71               	movwf	(_I2C_Status+17)& (0+255),b
  2405   0012C8                     
  2406                           ; BSR set to: 0
  2407                           ;mcc_generated_files/i2c_master.c: 197:         I2C_Status.callbackTable[I2C_DATA_NACK]=
      +                          I2C_CallbackReturnStop;
  2408   0012C8  0E92               	movlw	low _I2C_CallbackReturnStop
  2409   0012CA  6F66               	movwf	(_I2C_Status+6)& (0+255),b
  2410   0012CC  0E1B               	movlw	high _I2C_CallbackReturnStop
  2411   0012CE  6F67               	movwf	(_I2C_Status+7)& (0+255),b
  2412   0012D0                     
  2413                           ; BSR set to: 0
  2414                           ;mcc_generated_files/i2c_master.c: 198:         I2C_Status.callbackPayload[I2C_DATA_NACK
      +                          ] = ((void*)0);
  2415   0012D0  0E00               	movlw	0
  2416   0012D2  6F72               	movwf	(_I2C_Status+18)& (0+255),b
  2417   0012D4  0E00               	movlw	0
  2418   0012D6  6F73               	movwf	(_I2C_Status+19)& (0+255),b
  2419   0012D8                     
  2420                           ; BSR set to: 0
  2421                           ;mcc_generated_files/i2c_master.c: 199:         I2C_Status.callbackTable[I2C_TIMEOUT]=I2
      +                          C_CallbackReturnReset;
  2422   0012D8  0E8E               	movlw	low _I2C_CallbackReturnReset
  2423   0012DA  6F68               	movwf	(_I2C_Status+8)& (0+255),b
  2424   0012DC  0E1B               	movlw	high _I2C_CallbackReturnReset
  2425   0012DE  6F69               	movwf	(_I2C_Status+9)& (0+255),b
  2426   0012E0                     
  2427                           ; BSR set to: 0
  2428                           ;mcc_generated_files/i2c_master.c: 200:         I2C_Status.callbackPayload[I2C_TIMEOUT] 
      +                          = ((void*)0);
  2429   0012E0  0E00               	movlw	0
  2430   0012E2  6F74               	movwf	(_I2C_Status+20)& (0+255),b
  2431   0012E4  0E00               	movlw	0
  2432   0012E6  6F75               	movwf	(_I2C_Status+21)& (0+255),b
  2433   0012E8                     
  2434                           ; BSR set to: 0
  2435                           ;mcc_generated_files/i2c_master.c: 202:         I2C_SetInterruptHandler(I2C_MasterIsr);
  2436   0012E8  0E58               	movlw	low _I2C_MasterIsr
  2437   0012EA  6E1A               	movwf	I2C_SetInterruptHandler@InterruptHandler^0,c
  2438   0012EC  0E1B               	movlw	high _I2C_MasterIsr
  2439   0012EE  6E1B               	movwf	(I2C_SetInterruptHandler@InterruptHandler+1)^0,c
  2440   0012F0  EC7F  F00D         	call	_I2C_SetInterruptHandler	;wreg free
  2441   0012F4                     
  2442                           ;mcc_generated_files/i2c_master.c: 203:         I2C_MasterClearIrq();
  2443   0012F4  ECBD  F00D         	call	_I2C_MasterClearIrq	;wreg free
  2444   0012F8                     
  2445                           ;mcc_generated_files/i2c_master.c: 204:         I2C_MasterOpen();
  2446   0012F8  ECCF  F00C         	call	_I2C_MasterOpen	;wreg free
  2447   0012FC                     
  2448                           ;mcc_generated_files/i2c_master.c: 205:         I2C_MasterEnableIrq();
  2449   0012FC  ECB5  F00D         	call	_I2C_MasterEnableIrq	;wreg free
  2450   001300                     
  2451                           ;mcc_generated_files/i2c_master.c: 206:         returnValue = I2C_NOERR;
  2452   001300  0E00               	movlw	0
  2453   001302  6E1D               	movwf	I2C_Open@returnValue^0,c
  2454   001304                     l2577:
  2455                           
  2456                           ;mcc_generated_files/i2c_master.c: 208:     return returnValue;
  2457   001304  501D               	movf	I2C_Open@returnValue^0,w,c
  2458   001306  0012               	return		;funcret
  2459   001308                     __end_of_I2C_Open:
  2460                           	callstack 0
  2461                           
  2462 ;; *************** function _I2C_SetInterruptHandler *****************
  2463 ;; Defined at:
  2464 ;;		line 299 in file "mcc_generated_files/i2c_master.c"
  2465 ;; Parameters:    Size  Location     Type
  2466 ;;  InterruptHan    2   25[COMRAM] PTR FTN()void 
  2467 ;;		 -> I2C_MasterIsr(1), 
  2468 ;; Auto vars:     Size  Location     Type
  2469 ;;		None
  2470 ;; Return value:  Size  Location     Type
  2471 ;;                  1    wreg      void 
  2472 ;; Registers used:
  2473 ;;		wreg, status,2, status,0
  2474 ;; Tracked objects:
  2475 ;;		On entry : 0/0
  2476 ;;		On exit  : 0/0
  2477 ;;		Unchanged: 0/0
  2478 ;; Data sizes:     COMRAM   BANK0   BANK1   BANK2   BANK3   BANK4   BANK5   BANK6   BANK7   BANK8   BANK9  BANK10  BANK1
      +1  BANK12  BANK13  BANK14  BANK15
  2479 ;;      Params:         2       0       0       0       0       0       0       0       0       0       0       0       
      +0       0       0       0       0
  2480 ;;      Locals:         0       0       0       0       0       0       0       0       0       0       0       0       
      +0       0       0       0       0
  2481 ;;      Temps:          0       0       0       0       0       0       0       0       0       0       0       0       
      +0       0       0       0       0
  2482 ;;      Totals:         2       0       0       0       0       0       0       0       0       0       0       0       
      +0       0       0       0       0
  2483 ;;Total ram usage:        2 bytes
  2484 ;; Hardware stack levels used: 1
  2485 ;; Hardware stack levels required when called: 7
  2486 ;; This function calls:
  2487 ;;		Nothing
  2488 ;; This function is called by:
  2489 ;;		_I2C_Open
  2490 ;; This function uses a non-reentrant model
  2491 ;;
  2492                           
  2493                           	psect	text24
  2494   001AFE                     __ptext24:
  2495                           	callstack 0
  2496   001AFE                     _I2C_SetInterruptHandler:
  2497                           	callstack 20
  2498   001AFE                     
  2499                           ;mcc_generated_files/i2c_master.c: 299: void I2C_SetInterruptHandler(void (* InterruptHa
      +                          ndler)(void));mcc_generated_files/i2c_master.c: 300: {;mcc_generated_files/i2c_master.c:
      +                           301:     MSSP_InterruptHandler = InterruptHandler;
  2500   001AFE  C01A  F032         	movff	I2C_SetInterruptHandler@InterruptHandler,_MSSP_InterruptHandler
  2501   001B02  C01B  F033         	movff	I2C_SetInterruptHandler@InterruptHandler+1,_MSSP_InterruptHandler+1
  2502   001B06  0012               	return		;funcret
  2503   001B08                     __end_of_I2C_SetInterruptHandler:
  2504                           	callstack 0
  2505                           
  2506 ;; *************** function _I2C_MasterOpen *****************
  2507 ;; Defined at:
  2508 ;;		line 544 in file "mcc_generated_files/i2c_master.c"
  2509 ;; Parameters:    Size  Location     Type
  2510 ;;		None
  2511 ;; Auto vars:     Size  Location     Type
  2512 ;;		None
  2513 ;; Return value:  Size  Location     Type
  2514 ;;                  1    wreg      _Bool 
  2515 ;; Registers used:
  2516 ;;		wreg, status,2
  2517 ;; Tracked objects:
  2518 ;;		On entry : 0/0
  2519 ;;		On exit  : 0/0
  2520 ;;		Unchanged: 0/0
  2521 ;; Data sizes:     COMRAM   BANK0   BANK1   BANK2   BANK3   BANK4   BANK5   BANK6   BANK7   BANK8   BANK9  BANK10  BANK1
      +1  BANK12  BANK13  BANK14  BANK15
  2522 ;;      Params:         0       0       0       0       0       0       0       0       0       0       0       0       
      +0       0       0       0       0
  2523 ;;      Locals:         0       0       0       0       0       0       0       0       0       0       0       0       
      +0       0       0       0       0
  2524 ;;      Temps:          0       0       0       0       0       0       0       0       0       0       0       0       
      +0       0       0       0       0
  2525 ;;      Totals:         0       0       0       0       0       0       0       0       0       0       0       0       
      +0       0       0       0       0
  2526 ;;Total ram usage:        0 bytes
  2527 ;; Hardware stack levels used: 1
  2528 ;; Hardware stack levels required when called: 7
  2529 ;; This function calls:
  2530 ;;		Nothing
  2531 ;; This function is called by:
  2532 ;;		_I2C_Open
  2533 ;; This function uses a non-reentrant model
  2534 ;;
  2535                           
  2536                           	psect	text25
  2537   00199E                     __ptext25:
  2538                           	callstack 0
  2539   00199E                     _I2C_MasterOpen:
  2540                           	callstack 20
  2541   00199E                     
  2542                           ;mcc_generated_files/i2c_master.c: 546:     if(!SSPCON1bits.SSPEN)
  2543   00199E  BAC6               	btfsc	198,5,c	;volatile
  2544   0019A0  EFD4  F00C         	goto	u641
  2545   0019A4  EFD6  F00C         	goto	u640
  2546   0019A8                     u641:
  2547   0019A8  EFDF  F00C         	goto	l445
  2548   0019AC                     u640:
  2549   0019AC                     
  2550                           ;mcc_generated_files/i2c_master.c: 547:     {;mcc_generated_files/i2c_master.c: 548:    
      +                               SSPSTAT = 0x80;
  2551   0019AC  0E80               	movlw	128
  2552   0019AE  6EC7               	movwf	199,c	;volatile
  2553                           
  2554                           ;mcc_generated_files/i2c_master.c: 549:         SSPCON1 = 0x08;
  2555   0019B0  0E08               	movlw	8
  2556   0019B2  6EC6               	movwf	198,c	;volatile
  2557                           
  2558                           ;mcc_generated_files/i2c_master.c: 550:         SSPCON2 = 0x00;
  2559   0019B4  0E00               	movlw	0
  2560   0019B6  6EC5               	movwf	197,c	;volatile
  2561                           
  2562                           ;mcc_generated_files/i2c_master.c: 551:         SSPADD = 0x27;
  2563   0019B8  0E27               	movlw	39
  2564   0019BA  6EC8               	movwf	200,c	;volatile
  2565   0019BC                     
  2566                           ;mcc_generated_files/i2c_master.c: 552:         SSPCON1bits.SSPEN = 1;
  2567   0019BC  8AC6               	bsf	198,5,c	;volatile
  2568   0019BE                     l445:
  2569   0019BE  0012               	return		;funcret
  2570   0019C0                     __end_of_I2C_MasterOpen:
  2571                           	callstack 0
  2572                           
  2573 ;; *************** function _I2C_MasterEnableIrq *****************
  2574 ;; Defined at:
  2575 ;;		line 627 in file "mcc_generated_files/i2c_master.c"
  2576 ;; Parameters:    Size  Location     Type
  2577 ;;		None
  2578 ;; Auto vars:     Size  Location     Type
  2579 ;;		None
  2580 ;; Return value:  Size  Location     Type
  2581 ;;                  1    wreg      void 
  2582 ;; Registers used:
  2583 ;;		None
  2584 ;; Tracked objects:
  2585 ;;		On entry : 0/0
  2586 ;;		On exit  : 0/0
  2587 ;;		Unchanged: 0/0
  2588 ;; Data sizes:     COMRAM   BANK0   BANK1   BANK2   BANK3   BANK4   BANK5   BANK6   BANK7   BANK8   BANK9  BANK10  BANK1
      +1  BANK12  BANK13  BANK14  BANK15
  2589 ;;      Params:         0       0       0       0       0       0       0       0       0       0       0       0       
      +0       0       0       0       0
  2590 ;;      Locals:         0       0       0       0       0       0       0       0       0       0       0       0       
      +0       0       0       0       0
  2591 ;;      Temps:          0       0       0       0       0       0       0       0       0       0       0       0       
      +0       0       0       0       0
  2592 ;;      Totals:         0       0       0       0       0       0       0       0       0       0       0       0       
      +0       0       0       0       0
  2593 ;;Total ram usage:        0 bytes
  2594 ;; Hardware stack levels used: 1
  2595 ;; Hardware stack levels required when called: 7
  2596 ;; This function calls:
  2597 ;;		Nothing
  2598 ;; This function is called by:
  2599 ;;		_I2C_Open
  2600 ;;		_I2C_SetTimeOut
  2601 ;; This function uses a non-reentrant model
  2602 ;;
  2603                           
  2604                           	psect	text26
  2605   001B6A                     __ptext26:
  2606                           	callstack 0
  2607   001B6A                     _I2C_MasterEnableIrq:
  2608                           	callstack 20
  2609   001B6A                     
  2610                           ;mcc_generated_files/i2c_master.c: 629:     PIE1bits.SSPIE = 1;
  2611   001B6A  869D               	bsf	157,3,c	;volatile
  2612   001B6C  0012               	return		;funcret
  2613   001B6E                     __end_of_I2C_MasterEnableIrq:
  2614                           	callstack 0
  2615                           
  2616 ;; *************** function _I2C_MasterWrite *****************
  2617 ;; Defined at:
  2618 ;;		line 252 in file "mcc_generated_files/i2c_master.c"
  2619 ;; Parameters:    Size  Location     Type
  2620 ;;		None
  2621 ;; Auto vars:     Size  Location     Type
  2622 ;;		None
  2623 ;; Return value:  Size  Location     Type
  2624 ;;                  1    wreg      enum E358
  2625 ;; Registers used:
  2626 ;;		wreg, status,2, cstack
  2627 ;; Tracked objects:
  2628 ;;		On entry : 0/0
  2629 ;;		On exit  : 0/0
  2630 ;;		Unchanged: 0/0
  2631 ;; Data sizes:     COMRAM   BANK0   BANK1   BANK2   BANK3   BANK4   BANK5   BANK6   BANK7   BANK8   BANK9  BANK10  BANK1
      +1  BANK12  BANK13  BANK14  BANK15
  2632 ;;      Params:         0       0       0       0       0       0       0       0       0       0       0       0       
      +0       0       0       0       0
  2633 ;;      Locals:         0       0       0       0       0       0       0       0       0       0       0       0       
      +0       0       0       0       0
  2634 ;;      Temps:          0       0       0       0       0       0       0       0       0       0       0       0       
      +0       0       0       0       0
  2635 ;;      Totals:         0       0       0       0       0       0       0       0       0       0       0       0       
      +0       0       0       0       0
  2636 ;;Total ram usage:        0 bytes
  2637 ;; Hardware stack levels used: 1
  2638 ;; Hardware stack levels required when called: 9
  2639 ;; This function calls:
  2640 ;;		_I2C_MasterOperation
  2641 ;; This function is called by:
  2642 ;;		_I2C_Read1ByteRegister
  2643 ;;		_I2C_Write1ByteRegister
  2644 ;;		_I2C_Read2ByteRegister
  2645 ;;		_I2C_Write2ByteRegister
  2646 ;;		_I2C_WriteNBytes
  2647 ;;		_I2C_ReadDataBlock
  2648 ;; This function uses a non-reentrant model
  2649 ;;
  2650                           
  2651                           	psect	text27
  2652   001B10                     __ptext27:
  2653                           	callstack 0
  2654   001B10                     _I2C_MasterWrite:
  2655                           	callstack 19
  2656   001B10                     
  2657                           ;mcc_generated_files/i2c_master.c: 254:     return I2C_MasterOperation(0);;	Return value
      +                           of _I2C_MasterWrite is never used
  2658   001B10  0E00               	movlw	0
  2659   001B12  ECB5  F00B         	call	_I2C_MasterOperation
  2660   001B16  0012               	return		;funcret
  2661   001B18                     __end_of_I2C_MasterWrite:
  2662                           	callstack 0
  2663                           
  2664 ;; *************** function _I2C_MasterOperation *****************
  2665 ;; Defined at:
  2666 ;;		line 226 in file "mcc_generated_files/i2c_master.c"
  2667 ;; Parameters:    Size  Location     Type
  2668 ;;  read            1    wreg     _Bool 
  2669 ;; Auto vars:     Size  Location     Type
  2670 ;;  read            1   25[COMRAM] _Bool 
  2671 ;;  returnValue     1   26[COMRAM] enum E358
  2672 ;; Return value:  Size  Location     Type
  2673 ;;                  1    wreg      enum E358
  2674 ;; Registers used:
  2675 ;;		wreg, status,2, cstack
  2676 ;; Tracked objects:
  2677 ;;		On entry : 0/0
  2678 ;;		On exit  : 0/0
  2679 ;;		Unchanged: 0/0
  2680 ;; Data sizes:     COMRAM   BANK0   BANK1   BANK2   BANK3   BANK4   BANK5   BANK6   BANK7   BANK8   BANK9  BANK10  BANK1
      +1  BANK12  BANK13  BANK14  BANK15
  2681 ;;      Params:         0       0       0       0       0       0       0       0       0       0       0       0       
      +0       0       0       0       0
  2682 ;;      Locals:         2       0       0       0       0       0       0       0       0       0       0       0       
      +0       0       0       0       0
  2683 ;;      Temps:          0       0       0       0       0       0       0       0       0       0       0       0       
      +0       0       0       0       0
  2684 ;;      Totals:         2       0       0       0       0       0       0       0       0       0       0       0       
      +0       0       0       0       0
  2685 ;;Total ram usage:        2 bytes
  2686 ;; Hardware stack levels used: 1
  2687 ;; Hardware stack levels required when called: 8
  2688 ;; This function calls:
  2689 ;;		_I2C_MasterStart
  2690 ;; This function is called by:
  2691 ;;		_I2C_MasterWrite
  2692 ;;		_I2C_MasterRead
  2693 ;; This function uses a non-reentrant model
  2694 ;;
  2695                           
  2696                           	psect	text28
  2697   00176A                     __ptext28:
  2698                           	callstack 0
  2699   00176A                     _I2C_MasterOperation:
  2700                           	callstack 19
  2701                           
  2702                           ;incstack = 0
  2703                           ;I2C_MasterOperation@read stored from wreg
  2704   00176A  6E1A               	movwf	I2C_MasterOperation@read^0,c
  2705   00176C                     
  2706                           ;mcc_generated_files/i2c_master.c: 226: i2c_error_t I2C_MasterOperation(_Bool read);mcc_
      +                          generated_files/i2c_master.c: 227: {;mcc_generated_files/i2c_master.c: 228:     i2c_erro
      +                          r_t returnValue = I2C_BUSY;
  2707   00176C  0E01               	movlw	1
  2708   00176E  6E1B               	movwf	I2C_MasterOperation@returnValue^0,c
  2709   001770                     
  2710                           ;mcc_generated_files/i2c_master.c: 229:     if(!I2C_Status.busy)
  2711   001770  0100               	movlb	0	; () banked
  2712   001772  B383               	btfsc	(_I2C_Status+35)& (0+255),1,b
  2713   001774  EFBE  F00B         	goto	u651
  2714   001778  EFC0  F00B         	goto	u650
  2715   00177C                     u651:
  2716   00177C  EFD3  F00B         	goto	l2459
  2717   001780                     u650:
  2718   001780                     
  2719                           ; BSR set to: 0
  2720                           ;mcc_generated_files/i2c_master.c: 230:     {;mcc_generated_files/i2c_master.c: 231:    
      +                               I2C_Status.busy = 1;
  2721   001780  8383               	bsf	(_I2C_Status+35)& (0+255),1,b
  2722   001782                     
  2723                           ; BSR set to: 0
  2724                           ;mcc_generated_files/i2c_master.c: 232:         returnValue = I2C_NOERR;
  2725   001782  0E00               	movlw	0
  2726   001784  6E1B               	movwf	I2C_MasterOperation@returnValue^0,c
  2727   001786                     
  2728                           ; BSR set to: 0
  2729                           ;mcc_generated_files/i2c_master.c: 234:         if(read)
  2730   001786  501A               	movf	I2C_MasterOperation@read^0,w,c
  2731   001788  B4D8               	btfsc	status,2,c
  2732   00178A  EFC9  F00B         	goto	u661
  2733   00178E  EFCB  F00B         	goto	u660
  2734   001792                     u661:
  2735   001792  EFCF  F00B         	goto	l2455
  2736   001796                     u660:
  2737   001796                     
  2738                           ; BSR set to: 0
  2739                           ;mcc_generated_files/i2c_master.c: 235:         {;mcc_generated_files/i2c_master.c: 236:
      +                                       I2C_Status.state = I2C_SEND_ADR_READ;
  2740   001796  0E01               	movlw	1
  2741   001798  6F81               	movwf	(_I2C_Status+33)& (0+255),b
  2742                           
  2743                           ;mcc_generated_files/i2c_master.c: 237:         }
  2744   00179A  EFD1  F00B         	goto	l2457
  2745   00179E                     l2455:
  2746                           
  2747                           ; BSR set to: 0
  2748                           ;mcc_generated_files/i2c_master.c: 239:         {;mcc_generated_files/i2c_master.c: 240:
      +                                       I2C_Status.state = I2C_SEND_ADR_WRITE;
  2749   00179E  0E02               	movlw	2
  2750   0017A0  6F81               	movwf	(_I2C_Status+33)& (0+255),b
  2751   0017A2                     l2457:
  2752                           
  2753                           ; BSR set to: 0
  2754                           ;mcc_generated_files/i2c_master.c: 242:         I2C_MasterStart();
  2755   0017A2  ECB7  F00D         	call	_I2C_MasterStart	;wreg free
  2756   0017A6                     l2459:
  2757                           
  2758                           ;mcc_generated_files/i2c_master.c: 244:     return returnValue;
  2759   0017A6  501B               	movf	I2C_MasterOperation@returnValue^0,w,c
  2760   0017A8  0012               	return		;funcret
  2761   0017AA                     __end_of_I2C_MasterOperation:
  2762                           	callstack 0
  2763                           
  2764 ;; *************** function _I2C_MasterStart *****************
  2765 ;; Defined at:
  2766 ;;		line 589 in file "mcc_generated_files/i2c_master.c"
  2767 ;; Parameters:    Size  Location     Type
  2768 ;;		None
  2769 ;; Auto vars:     Size  Location     Type
  2770 ;;		None
  2771 ;; Return value:  Size  Location     Type
  2772 ;;                  1    wreg      void 
  2773 ;; Registers used:
  2774 ;;		None
  2775 ;; Tracked objects:
  2776 ;;		On entry : 0/0
  2777 ;;		On exit  : 0/0
  2778 ;;		Unchanged: 0/0
  2779 ;; Data sizes:     COMRAM   BANK0   BANK1   BANK2   BANK3   BANK4   BANK5   BANK6   BANK7   BANK8   BANK9  BANK10  BANK1
      +1  BANK12  BANK13  BANK14  BANK15
  2780 ;;      Params:         0       0       0       0       0       0       0       0       0       0       0       0       
      +0       0       0       0       0
  2781 ;;      Locals:         0       0       0       0       0       0       0       0       0       0       0       0       
      +0       0       0       0       0
  2782 ;;      Temps:          0       0       0       0       0       0       0       0       0       0       0       0       
      +0       0       0       0       0
  2783 ;;      Totals:         0       0       0       0       0       0       0       0       0       0       0       0       
      +0       0       0       0       0
  2784 ;;Total ram usage:        0 bytes
  2785 ;; Hardware stack levels used: 1
  2786 ;; Hardware stack levels required when called: 7
  2787 ;; This function calls:
  2788 ;;		Nothing
  2789 ;; This function is called by:
  2790 ;;		_I2C_MasterOperation
  2791 ;; This function uses a non-reentrant model
  2792 ;;
  2793                           
  2794                           	psect	text29
  2795   001B6E                     __ptext29:
  2796                           	callstack 0
  2797   001B6E                     _I2C_MasterStart:
  2798                           	callstack 19
  2799   001B6E                     
  2800                           ;mcc_generated_files/i2c_master.c: 591:     SSPCON2bits.SEN = 1;
  2801   001B6E  80C5               	bsf	197,0,c	;volatile
  2802   001B70  0012               	return		;funcret
  2803   001B72                     __end_of_I2C_MasterStart:
  2804                           	callstack 0
  2805                           
  2806 ;; *************** function _I2C_Close *****************
  2807 ;; Defined at:
  2808 ;;		line 211 in file "mcc_generated_files/i2c_master.c"
  2809 ;; Parameters:    Size  Location     Type
  2810 ;;		None
  2811 ;; Auto vars:     Size  Location     Type
  2812 ;;  returnValue     1   25[COMRAM] enum E358
  2813 ;; Return value:  Size  Location     Type
  2814 ;;                  1    wreg      enum E358
  2815 ;; Registers used:
  2816 ;;		wreg, status,2, cstack
  2817 ;; Tracked objects:
  2818 ;;		On entry : 0/0
  2819 ;;		On exit  : 0/0
  2820 ;;		Unchanged: 0/0
  2821 ;; Data sizes:     COMRAM   BANK0   BANK1   BANK2   BANK3   BANK4   BANK5   BANK6   BANK7   BANK8   BANK9  BANK10  BANK1
      +1  BANK12  BANK13  BANK14  BANK15
  2822 ;;      Params:         0       0       0       0       0       0       0       0       0       0       0       0       
      +0       0       0       0       0
  2823 ;;      Locals:         1       0       0       0       0       0       0       0       0       0       0       0       
      +0       0       0       0       0
  2824 ;;      Temps:          0       0       0       0       0       0       0       0       0       0       0       0       
      +0       0       0       0       0
  2825 ;;      Totals:         1       0       0       0       0       0       0       0       0       0       0       0       
      +0       0       0       0       0
  2826 ;;Total ram usage:        1 bytes
  2827 ;; Hardware stack levels used: 1
  2828 ;; Hardware stack levels required when called: 8
  2829 ;; This function calls:
  2830 ;;		_I2C_MasterClearIrq
  2831 ;;		_I2C_MasterClose
  2832 ;;		_I2C_MasterDisableIrq
  2833 ;; This function is called by:
  2834 ;;		_I2C_Read1ByteRegister
  2835 ;;		_I2C_Write1ByteRegister
  2836 ;;		_I2C_Read2ByteRegister
  2837 ;;		_I2C_Write2ByteRegister
  2838 ;;		_I2C_WriteNBytes
  2839 ;;		_I2C_ReadNBytes
  2840 ;;		_I2C_ReadDataBlock
  2841 ;; This function uses a non-reentrant model
  2842 ;;
  2843                           
  2844                           	psect	text30
  2845   001858                     __ptext30:
  2846                           	callstack 0
  2847   001858                     _I2C_Close:
  2848                           	callstack 20
  2849   001858                     
  2850                           ;mcc_generated_files/i2c_master.c: 213:     i2c_error_t returnValue = I2C_BUSY;
  2851   001858  0E01               	movlw	1
  2852   00185A  6E1A               	movwf	I2C_Close@returnValue^0,c
  2853   00185C                     
  2854                           ;mcc_generated_files/i2c_master.c: 214:     if(!I2C_Status.busy)
  2855   00185C  0100               	movlb	0	; () banked
  2856   00185E  B383               	btfsc	(_I2C_Status+35)& (0+255),1,b
  2857   001860  EF34  F00C         	goto	u711
  2858   001864  EF36  F00C         	goto	u710
  2859   001868                     u711:
  2860   001868  EF40  F00C         	goto	l2607
  2861   00186C                     u710:
  2862   00186C                     
  2863                           ; BSR set to: 0
  2864                           ;mcc_generated_files/i2c_master.c: 215:     {;mcc_generated_files/i2c_master.c: 216:    
      +                               I2C_Status.inUse = 0;
  2865   00186C  9583               	bcf	(_I2C_Status+35)& (0+255),2,b
  2866                           
  2867                           ;mcc_generated_files/i2c_master.c: 217:         I2C_Status.address = 0xff;
  2868   00186E  697C               	setf	(_I2C_Status+28)& (0+255),b
  2869   001870                     
  2870                           ; BSR set to: 0
  2871                           ;mcc_generated_files/i2c_master.c: 218:         I2C_MasterClearIrq();
  2872   001870  ECBD  F00D         	call	_I2C_MasterClearIrq	;wreg free
  2873                           
  2874                           ;mcc_generated_files/i2c_master.c: 219:         I2C_MasterDisableIrq();
  2875   001874  ECB9  F00D         	call	_I2C_MasterDisableIrq	;wreg free
  2876                           
  2877                           ;mcc_generated_files/i2c_master.c: 220:         I2C_MasterClose();
  2878   001878  ECBB  F00D         	call	_I2C_MasterClose	;wreg free
  2879   00187C                     
  2880                           ;mcc_generated_files/i2c_master.c: 221:         returnValue = I2C_Status.error;
  2881   00187C  C082  F01A         	movff	_I2C_Status+34,I2C_Close@returnValue
  2882   001880                     l2607:
  2883                           
  2884                           ;mcc_generated_files/i2c_master.c: 223:     return returnValue;
  2885   001880  501A               	movf	I2C_Close@returnValue^0,w,c
  2886   001882  0012               	return		;funcret
  2887   001884                     __end_of_I2C_Close:
  2888                           	callstack 0
  2889                           
  2890 ;; *************** function _I2C_MasterDisableIrq *****************
  2891 ;; Defined at:
  2892 ;;		line 637 in file "mcc_generated_files/i2c_master.c"
  2893 ;; Parameters:    Size  Location     Type
  2894 ;;		None
  2895 ;; Auto vars:     Size  Location     Type
  2896 ;;		None
  2897 ;; Return value:  Size  Location     Type
  2898 ;;                  1    wreg      void 
  2899 ;; Registers used:
  2900 ;;		None
  2901 ;; Tracked objects:
  2902 ;;		On entry : 0/0
  2903 ;;		On exit  : 0/0
  2904 ;;		Unchanged: 0/0
  2905 ;; Data sizes:     COMRAM   BANK0   BANK1   BANK2   BANK3   BANK4   BANK5   BANK6   BANK7   BANK8   BANK9  BANK10  BANK1
      +1  BANK12  BANK13  BANK14  BANK15
  2906 ;;      Params:         0       0       0       0       0       0       0       0       0       0       0       0       
      +0       0       0       0       0
  2907 ;;      Locals:         0       0       0       0       0       0       0       0       0       0       0       0       
      +0       0       0       0       0
  2908 ;;      Temps:          0       0       0       0       0       0       0       0       0       0       0       0       
      +0       0       0       0       0
  2909 ;;      Totals:         0       0       0       0       0       0       0       0       0       0       0       0       
      +0       0       0       0       0
  2910 ;;Total ram usage:        0 bytes
  2911 ;; Hardware stack levels used: 1
  2912 ;; Hardware stack levels required when called: 7
  2913 ;; This function calls:
  2914 ;;		Nothing
  2915 ;; This function is called by:
  2916 ;;		_I2C_Close
  2917 ;;		_I2C_SetTimeOut
  2918 ;; This function uses a non-reentrant model
  2919 ;;
  2920                           
  2921                           	psect	text31
  2922   001B72                     __ptext31:
  2923                           	callstack 0
  2924   001B72                     _I2C_MasterDisableIrq:
  2925                           	callstack 20
  2926   001B72                     
  2927                           ;mcc_generated_files/i2c_master.c: 639:     PIE1bits.SSPIE = 0;
  2928   001B72  969D               	bcf	157,3,c	;volatile
  2929   001B74  0012               	return		;funcret
  2930   001B76                     __end_of_I2C_MasterDisableIrq:
  2931                           	callstack 0
  2932                           
  2933 ;; *************** function _I2C_MasterClose *****************
  2934 ;; Defined at:
  2935 ;;		line 558 in file "mcc_generated_files/i2c_master.c"
  2936 ;; Parameters:    Size  Location     Type
  2937 ;;		None
  2938 ;; Auto vars:     Size  Location     Type
  2939 ;;		None
  2940 ;; Return value:  Size  Location     Type
  2941 ;;                  1    wreg      void 
  2942 ;; Registers used:
  2943 ;;		None
  2944 ;; Tracked objects:
  2945 ;;		On entry : 0/0
  2946 ;;		On exit  : 0/0
  2947 ;;		Unchanged: 0/0
  2948 ;; Data sizes:     COMRAM   BANK0   BANK1   BANK2   BANK3   BANK4   BANK5   BANK6   BANK7   BANK8   BANK9  BANK10  BANK1
      +1  BANK12  BANK13  BANK14  BANK15
  2949 ;;      Params:         0       0       0       0       0       0       0       0       0       0       0       0       
      +0       0       0       0       0
  2950 ;;      Locals:         0       0       0       0       0       0       0       0       0       0       0       0       
      +0       0       0       0       0
  2951 ;;      Temps:          0       0       0       0       0       0       0       0       0       0       0       0       
      +0       0       0       0       0
  2952 ;;      Totals:         0       0       0       0       0       0       0       0       0       0       0       0       
      +0       0       0       0       0
  2953 ;;Total ram usage:        0 bytes
  2954 ;; Hardware stack levels used: 1
  2955 ;; Hardware stack levels required when called: 7
  2956 ;; This function calls:
  2957 ;;		Nothing
  2958 ;; This function is called by:
  2959 ;;		_I2C_Close
  2960 ;; This function uses a non-reentrant model
  2961 ;;
  2962                           
  2963                           	psect	text32
  2964   001B76                     __ptext32:
  2965                           	callstack 0
  2966   001B76                     _I2C_MasterClose:
  2967                           	callstack 20
  2968   001B76                     
  2969                           ;mcc_generated_files/i2c_master.c: 561:     SSPCON1bits.SSPEN = 0;
  2970   001B76  9AC6               	bcf	198,5,c	;volatile
  2971   001B78  0012               	return		;funcret
  2972   001B7A                     __end_of_I2C_MasterClose:
  2973                           	callstack 0
  2974                           
  2975 ;; *************** function _I2C_MasterClearIrq *****************
  2976 ;; Defined at:
  2977 ;;		line 642 in file "mcc_generated_files/i2c_master.c"
  2978 ;; Parameters:    Size  Location     Type
  2979 ;;		None
  2980 ;; Auto vars:     Size  Location     Type
  2981 ;;		None
  2982 ;; Return value:  Size  Location     Type
  2983 ;;                  1    wreg      void 
  2984 ;; Registers used:
  2985 ;;		None
  2986 ;; Tracked objects:
  2987 ;;		On entry : 0/0
  2988 ;;		On exit  : 0/0
  2989 ;;		Unchanged: 0/0
  2990 ;; Data sizes:     COMRAM   BANK0   BANK1   BANK2   BANK3   BANK4   BANK5   BANK6   BANK7   BANK8   BANK9  BANK10  BANK1
      +1  BANK12  BANK13  BANK14  BANK15
  2991 ;;      Params:         0       0       0       0       0       0       0       0       0       0       0       0       
      +0       0       0       0       0
  2992 ;;      Locals:         0       0       0       0       0       0       0       0       0       0       0       0       
      +0       0       0       0       0
  2993 ;;      Temps:          0       0       0       0       0       0       0       0       0       0       0       0       
      +0       0       0       0       0
  2994 ;;      Totals:         0       0       0       0       0       0       0       0       0       0       0       0       
      +0       0       0       0       0
  2995 ;;Total ram usage:        0 bytes
  2996 ;; Hardware stack levels used: 1
  2997 ;; Hardware stack levels required when called: 7
  2998 ;; This function calls:
  2999 ;;		Nothing
  3000 ;; This function is called by:
  3001 ;;		_I2C_Open
  3002 ;;		_I2C_Close
  3003 ;; This function uses a non-reentrant model
  3004 ;;
  3005                           
  3006                           	psect	text33
  3007   001B7A                     __ptext33:
  3008                           	callstack 0
  3009   001B7A                     _I2C_MasterClearIrq:
  3010                           	callstack 20
  3011   001B7A                     
  3012                           ;mcc_generated_files/i2c_master.c: 644:     PIR1bits.SSPIF = 0;
  3013   001B7A  969E               	bcf	158,3,c	;volatile
  3014   001B7C  0012               	return		;funcret
  3015   001B7E                     __end_of_I2C_MasterClearIrq:
  3016                           	callstack 0
  3017                           
  3018 ;; *************** function _INTERRUPT_InterruptManagerHigh *****************
  3019 ;; Defined at:
  3020 ;;		line 68 in file "mcc_generated_files/interrupt_manager.c"
  3021 ;; Parameters:    Size  Location     Type
  3022 ;;		None
  3023 ;; Auto vars:     Size  Location     Type
  3024 ;;		None
  3025 ;; Return value:  Size  Location     Type
  3026 ;;                  1    wreg      void 
  3027 ;; Registers used:
  3028 ;;		wreg, fsr2l, fsr2h, status,2, status,0, pcl, pclath, pclatu, tosl, tblptrl, tblptrh, tblptru, prodl, prodh, cstack
  3029 ;; Tracked objects:
  3030 ;;		On entry : 0/0
  3031 ;;		On exit  : 0/0
  3032 ;;		Unchanged: 0/0
  3033 ;; Data sizes:     COMRAM   BANK0   BANK1   BANK2   BANK3   BANK4   BANK5   BANK6   BANK7   BANK8   BANK9  BANK10  BANK1
      +1  BANK12  BANK13  BANK14  BANK15
  3034 ;;      Params:         0       0       0       0       0       0       0       0       0       0       0       0       
      +0       0       0       0       0
  3035 ;;      Locals:         0       0       0       0       0       0       0       0       0       0       0       0       
      +0       0       0       0       0
  3036 ;;      Temps:         10       0       0       0       0       0       0       0       0       0       0       0       
      +0       0       0       0       0
  3037 ;;      Totals:        10       0       0       0       0       0       0       0       0       0       0       0       
      +0       0       0       0       0
  3038 ;;Total ram usage:       10 bytes
  3039 ;; Hardware stack levels used: 1
  3040 ;; Hardware stack levels required when called: 6
  3041 ;; This function calls:
  3042 ;;		NULL
  3043 ;;		_I2C_MasterIsr
  3044 ;; This function is called by:
  3045 ;;		Interrupt level 2
  3046 ;; This function uses a non-reentrant model
  3047 ;;
  3048                           
  3049                           	psect	intcode
  3050   000008                     __pintcode:
  3051                           	callstack 0
  3052   000008                     _INTERRUPT_InterruptManagerHigh:
  3053                           	callstack 19
  3054                           
  3055                           ;incstack = 0
  3056   000008  8246               	bsf	int$flags,1,c	;set compiler interrupt flag (level 2)
  3057   00000A  CFFA F010          	movff	pclath,??_INTERRUPT_InterruptManagerHigh
  3058   00000E  CFFB F011          	movff	pclatu,??_INTERRUPT_InterruptManagerHigh+1
  3059   000012  CFD9 F012          	movff	fsr2l,??_INTERRUPT_InterruptManagerHigh+2
  3060   000016  CFDA F013          	movff	fsr2h,??_INTERRUPT_InterruptManagerHigh+3
  3061   00001A  CFF3 F014          	movff	prodl,??_INTERRUPT_InterruptManagerHigh+4
  3062   00001E  CFF4 F015          	movff	prodh,??_INTERRUPT_InterruptManagerHigh+5
  3063   000022  CFF6 F016          	movff	tblptrl,??_INTERRUPT_InterruptManagerHigh+6
  3064   000026  CFF7 F017          	movff	tblptrh,??_INTERRUPT_InterruptManagerHigh+7
  3065   00002A  CFF8 F018          	movff	tblptru,??_INTERRUPT_InterruptManagerHigh+8
  3066   00002E  CFF5 F019          	movff	tablat,??_INTERRUPT_InterruptManagerHigh+9
  3067   000032                     
  3068                           ;mcc_generated_files/interrupt_manager.c: 71:     if(PIE2bits.BCLIE == 1 && PIR2bits.BCL
      +                          IF == 1)
  3069   000032  A6A0               	btfss	160,3,c	;volatile
  3070   000034  EF1E  F000         	goto	i2u101_41
  3071   000038  EF20  F000         	goto	i2u101_40
  3072   00003C                     i2u101_41:
  3073   00003C  EF35  F000         	goto	i2l705
  3074   000040                     i2u101_40:
  3075   000040  A6A1               	btfss	161,3,c	;volatile
  3076   000042  EF25  F000         	goto	i2u102_41
  3077   000046  EF27  F000         	goto	i2u102_40
  3078   00004A                     i2u102_41:
  3079   00004A  EF35  F000         	goto	i2l705
  3080   00004E                     i2u102_40:
  3081   00004E                     i2l3017:
  3082                           
  3083                           ;mcc_generated_files/interrupt_manager.c: 72:     {;mcc_generated_files/interrupt_manage
      +                          r.c: 73:         MSSP_InterruptHandler();
  3084   00004E  D802               	call	i2u103_48
  3085   000050  EF33  F000         	goto	i2u103_49
  3086   000054                     i2u103_48:
  3087   000054  0005               	push	
  3088   000056  6EFA               	movwf	pclath,c
  3089   000058  5032               	movf	_MSSP_InterruptHandler^0,w,c
  3090   00005A  6EFD               	movwf	tosl,c
  3091   00005C  5033               	movf	(_MSSP_InterruptHandler+1)^0,w,c
  3092   00005E  6EFE               	movwf	tosh,c
  3093   000060  6AFF               	clrf	tosu,c
  3094   000062  50FA               	movf	pclath,w,c
  3095   000064  0012               	return		;indir
  3096   000066                     i2u103_49:
  3097                           
  3098                           ;mcc_generated_files/interrupt_manager.c: 74:     }
  3099   000066  EF45  F000         	goto	i2l709
  3100   00006A                     i2l705:
  3101   00006A  A69D               	btfss	157,3,c	;volatile
  3102   00006C  EF3A  F000         	goto	i2u104_41
  3103   000070  EF3C  F000         	goto	i2u104_40
  3104   000074                     i2u104_41:
  3105   000074  EF45  F000         	goto	i2l709
  3106   000078                     i2u104_40:
  3107   000078  A69E               	btfss	158,3,c	;volatile
  3108   00007A  EF41  F000         	goto	i2u105_41
  3109   00007E  EF43  F000         	goto	i2u105_40
  3110   000082                     i2u105_41:
  3111   000082  EF45  F000         	goto	i2l709
  3112   000086                     i2u105_40:
  3113   000086  EF27  F000         	goto	i2l3017
  3114   00008A                     i2l709:
  3115   00008A  C019  FFF5         	movff	??_INTERRUPT_InterruptManagerHigh+9,tablat
  3116   00008E  C018  FFF8         	movff	??_INTERRUPT_InterruptManagerHigh+8,tblptru
  3117   000092  C017  FFF7         	movff	??_INTERRUPT_InterruptManagerHigh+7,tblptrh
  3118   000096  C016  FFF6         	movff	??_INTERRUPT_InterruptManagerHigh+6,tblptrl
  3119   00009A  C015  FFF4         	movff	??_INTERRUPT_InterruptManagerHigh+5,prodh
  3120   00009E  C014  FFF3         	movff	??_INTERRUPT_InterruptManagerHigh+4,prodl
  3121   0000A2  C013  FFDA         	movff	??_INTERRUPT_InterruptManagerHigh+3,fsr2h
  3122   0000A6  C012  FFD9         	movff	??_INTERRUPT_InterruptManagerHigh+2,fsr2l
  3123   0000AA  C011  FFFB         	movff	??_INTERRUPT_InterruptManagerHigh+1,pclatu
  3124   0000AE  C010  FFFA         	movff	??_INTERRUPT_InterruptManagerHigh,pclath
  3125   0000B2  9246               	bcf	int$flags,1,c	;clear compiler interrupt flag (level 2)
  3126   0000B4  0011               	retfie		f
  3127   0000B6                     __end_of_INTERRUPT_InterruptManagerHigh:
  3128                           	callstack 0
  3129                           
  3130 ;; *************** function _I2C_MasterIsr *****************
  3131 ;; Defined at:
  3132 ;;		line 318 in file "mcc_generated_files/i2c_master.c"
  3133 ;; Parameters:    Size  Location     Type
  3134 ;;		None
  3135 ;; Auto vars:     Size  Location     Type
  3136 ;;		None
  3137 ;; Return value:  Size  Location     Type
  3138 ;;                  1    wreg      void 
  3139 ;; Registers used:
  3140 ;;		wreg, fsr2l, fsr2h, status,2, status,0, pcl, pclath, pclatu, tosl, tblptrl, tblptrh, tblptru, prodl, prodh, cstack
  3141 ;; Tracked objects:
  3142 ;;		On entry : 0/0
  3143 ;;		On exit  : 0/0
  3144 ;;		Unchanged: 0/0
  3145 ;; Data sizes:     COMRAM   BANK0   BANK1   BANK2   BANK3   BANK4   BANK5   BANK6   BANK7   BANK8   BANK9  BANK10  BANK1
      +1  BANK12  BANK13  BANK14  BANK15
  3146 ;;      Params:         0       0       0       0       0       0       0       0       0       0       0       0       
      +0       0       0       0       0
  3147 ;;      Locals:         0       0       0       0       0       0       0       0       0       0       0       0       
      +0       0       0       0       0
  3148 ;;      Temps:          0       0       0       0       0       0       0       0       0       0       0       0       
      +0       0       0       0       0
  3149 ;;      Totals:         0       0       0       0       0       0       0       0       0       0       0       0       
      +0       0       0       0       0
  3150 ;;Total ram usage:        0 bytes
  3151 ;; Hardware stack levels used: 1
  3152 ;; Hardware stack levels required when called: 5
  3153 ;; This function calls:
  3154 ;;		_I2C_MasterFsm
  3155 ;; This function is called by:
  3156 ;;		_I2C_Open
  3157 ;;		_INTERRUPT_InterruptManagerHigh
  3158 ;; This function uses a non-reentrant model
  3159 ;;
  3160                           
  3161                           	psect	text35
  3162   001B58                     __ptext35:
  3163                           	callstack 0
  3164   001B58                     _I2C_MasterIsr:
  3165                           	callstack 19
  3166   001B58                     
  3167                           ;mcc_generated_files/i2c_master.c: 320:     I2C_MasterFsm();
  3168   001B58  ECBF  F00A         	call	_I2C_MasterFsm	;wreg free
  3169   001B5C  0012               	return		;funcret
  3170   001B5E                     __end_of_I2C_MasterIsr:
  3171                           	callstack 0
  3172                           
  3173 ;; *************** function _I2C_MasterFsm *****************
  3174 ;; Defined at:
  3175 ;;		line 323 in file "mcc_generated_files/i2c_master.c"
  3176 ;; Parameters:    Size  Location     Type
  3177 ;;		None
  3178 ;; Auto vars:     Size  Location     Type
  3179 ;;		None
  3180 ;; Return value:  Size  Location     Type
  3181 ;;                  1    wreg      void 
  3182 ;; Registers used:
  3183 ;;		wreg, fsr2l, fsr2h, status,2, status,0, pcl, pclath, pclatu, tosl, tblptrl, tblptrh, tblptru, prodl, prodh, cstack
  3184 ;; Tracked objects:
  3185 ;;		On entry : 0/0
  3186 ;;		On exit  : 0/0
  3187 ;;		Unchanged: 0/0
  3188 ;; Data sizes:     COMRAM   BANK0   BANK1   BANK2   BANK3   BANK4   BANK5   BANK6   BANK7   BANK8   BANK9  BANK10  BANK1
      +1  BANK12  BANK13  BANK14  BANK15
  3189 ;;      Params:         0       0       0       0       0       0       0       0       0       0       0       0       
      +0       0       0       0       0
  3190 ;;      Locals:         0       0       0       0       0       0       0       0       0       0       0       0       
      +0       0       0       0       0
  3191 ;;      Temps:          2       0       0       0       0       0       0       0       0       0       0       0       
      +0       0       0       0       0
  3192 ;;      Totals:         2       0       0       0       0       0       0       0       0       0       0       0       
      +0       0       0       0       0
  3193 ;;Total ram usage:        2 bytes
  3194 ;; Hardware stack levels used: 1
  3195 ;; Hardware stack levels required when called: 4
  3196 ;; This function calls:
  3197 ;;		_I2C_DO_ADDRESS_NACK
  3198 ;;		_I2C_DO_IDLE
  3199 ;;		_I2C_DO_RCEN
  3200 ;;		_I2C_DO_RESET
  3201 ;;		_I2C_DO_RX
  3202 ;;		_I2C_DO_RX_ACK
  3203 ;;		_I2C_DO_RX_NACK_RESTART
  3204 ;;		_I2C_DO_RX_NACK_STOP
  3205 ;;		_I2C_DO_SEND_ADR_READ
  3206 ;;		_I2C_DO_SEND_ADR_WRITE
  3207 ;;		_I2C_DO_SEND_RESTART
  3208 ;;		_I2C_DO_SEND_RESTART_READ
  3209 ;;		_I2C_DO_SEND_RESTART_WRITE
  3210 ;;		_I2C_DO_SEND_STOP
  3211 ;;		_I2C_DO_TX
  3212 ;;		_I2C_DO_TX_EMPTY
  3213 ;;		_I2C_MasterIsNack
  3214 ;;		i2_I2C_MasterClearIrq
  3215 ;; This function is called by:
  3216 ;;		_I2C_MasterIsr
  3217 ;; This function uses a non-reentrant model
  3218 ;;
  3219                           
  3220                           	psect	text36
  3221   00157E                     __ptext36:
  3222                           	callstack 0
  3223   00157E                     _I2C_MasterFsm:
  3224                           	callstack 19
  3225   00157E                     
  3226                           ;mcc_generated_files/i2c_master.c: 325:     I2C_MasterClearIrq();
  3227   00157E  ECBF  F00D         	call	i2_I2C_MasterClearIrq	;wreg free
  3228   001582                     
  3229                           ;mcc_generated_files/i2c_master.c: 327:     if(I2C_Status.addressNackCheck && I2C_Master
      +                          IsNack())
  3230   001582  0100               	movlb	0	; () banked
  3231   001584  A183               	btfss	(_I2C_Status+35)& (0+255),0,b
  3232   001586  EFC7  F00A         	goto	i2u85_41
  3233   00158A  EFC9  F00A         	goto	i2u85_40
  3234   00158E                     i2u85_41:
  3235   00158E  EFD6  F00A         	goto	i2l2823
  3236   001592                     i2u85_40:
  3237   001592                     
  3238                           ; BSR set to: 0
  3239   001592  EC24  F00D         	call	_I2C_MasterIsNack	;wreg free
  3240   001596  0900               	iorlw	0
  3241   001598  B4D8               	btfsc	status,2,c
  3242   00159A  EFD1  F00A         	goto	i2u86_41
  3243   00159E  EFD3  F00A         	goto	i2u86_40
  3244   0015A2                     i2u86_41:
  3245   0015A2  EFD6  F00A         	goto	i2l2823
  3246   0015A6                     i2u86_40:
  3247   0015A6                     
  3248                           ;mcc_generated_files/i2c_master.c: 328:     {;mcc_generated_files/i2c_master.c: 329:    
      +                               I2C_Status.state = I2C_ADDRESS_NACK;
  3249   0015A6  0E0F               	movlw	15
  3250   0015A8  0100               	movlb	0	; () banked
  3251   0015AA  6F81               	movwf	(_I2C_Status+33)& (0+255),b
  3252   0015AC                     i2l2823:
  3253                           
  3254                           ;mcc_generated_files/i2c_master.c: 331:     I2C_Status.state = i2c_fsmStateTable[I2C_Sta
      +                          tus.state]();
  3255   0015AC  0100               	movlb	0	; () banked
  3256   0015AE  5181               	movf	(_I2C_Status+33)& (0+255),w,b
  3257   0015B0  0D02               	mullw	2
  3258   0015B2  0E01               	movlw	low _i2c_fsmStateTable
  3259   0015B4  24F3               	addwf	243,w,c
  3260   0015B6  6EF6               	movwf	tblptrl,c
  3261   0015B8  0E10               	movlw	high _i2c_fsmStateTable
  3262   0015BA  20F4               	addwfc	244,w,c
  3263   0015BC  6EF7               	movwf	tblptrh,c
  3264   0015BE                     	if	1	;There are 3 active tblptr bytes
  3265   0015BE  6AF8               	clrf	tblptru,c
  3266   0015C0  0E00               	movlw	low (__mediumconst shr (0+16))
  3267   0015C2  22F8               	addwfc	tblptru,f,c
  3268   0015C4                     	endif
  3269   0015C4  0009               	tblrd		*+
  3270   0015C6  CFF5 F00E          	movff	tablat,??_I2C_MasterFsm
  3271   0015CA  0009               	tblrd		*+
  3272   0015CC  CFF5 F00F          	movff	tablat,??_I2C_MasterFsm+1
  3273   0015D0  D802               	call	i2u87_48
  3274   0015D2  EFF4  F00A         	goto	i2u87_49
  3275   0015D6                     i2u87_48:
  3276   0015D6  0005               	push	
  3277   0015D8  6EFA               	movwf	pclath,c
  3278   0015DA  500E               	movf	??_I2C_MasterFsm^0,w,c
  3279   0015DC  6EFD               	movwf	tosl,c
  3280   0015DE  500F               	movf	(??_I2C_MasterFsm+1)^0,w,c
  3281   0015E0  6EFE               	movwf	tosh,c
  3282   0015E2  6AFF               	clrf	tosu,c
  3283   0015E4  50FA               	movf	pclath,w,c
  3284   0015E6  0012               	return		;indir
  3285   0015E8                     i2u87_49:
  3286   0015E8  0100               	movlb	0	; () banked
  3287   0015EA  6F81               	movwf	(_I2C_Status+33)& (0+255),b
  3288   0015EC                     
  3289                           ; BSR set to: 0
  3290   0015EC  0012               	return		;funcret
  3291   0015EE                     __end_of_I2C_MasterFsm:
  3292                           	callstack 0
  3293                           
  3294 ;; *************** function i2_I2C_MasterClearIrq *****************
  3295 ;; Defined at:
  3296 ;;		line 642 in file "mcc_generated_files/i2c_master.c"
  3297 ;; Parameters:    Size  Location     Type
  3298 ;;		None
  3299 ;; Auto vars:     Size  Location     Type
  3300 ;;		None
  3301 ;; Return value:  Size  Location     Type
  3302 ;;                  1    wreg      void 
  3303 ;; Registers used:
  3304 ;;		None
  3305 ;; Tracked objects:
  3306 ;;		On entry : 0/0
  3307 ;;		On exit  : 0/0
  3308 ;;		Unchanged: 0/0
  3309 ;; Data sizes:     COMRAM   BANK0   BANK1   BANK2   BANK3   BANK4   BANK5   BANK6   BANK7   BANK8   BANK9  BANK10  BANK1
      +1  BANK12  BANK13  BANK14  BANK15
  3310 ;;      Params:         0       0       0       0       0       0       0       0       0       0       0       0       
      +0       0       0       0       0
  3311 ;;      Locals:         0       0       0       0       0       0       0       0       0       0       0       0       
      +0       0       0       0       0
  3312 ;;      Temps:          0       0       0       0       0       0       0       0       0       0       0       0       
      +0       0       0       0       0
  3313 ;;      Totals:         0       0       0       0       0       0       0       0       0       0       0       0       
      +0       0       0       0       0
  3314 ;;Total ram usage:        0 bytes
  3315 ;; Hardware stack levels used: 1
  3316 ;; This function calls:
  3317 ;;		Nothing
  3318 ;; This function is called by:
  3319 ;;		_I2C_MasterFsm
  3320 ;; This function uses a non-reentrant model
  3321 ;;
  3322                           
  3323                           	psect	text37
  3324   001B7E                     __ptext37:
  3325                           	callstack 0
  3326   001B7E                     i2_I2C_MasterClearIrq:
  3327                           	callstack 22
  3328   001B7E                     
  3329                           ;mcc_generated_files/i2c_master.c: 644:     PIR1bits.SSPIF = 0;
  3330   001B7E  969E               	bcf	158,3,c	;volatile
  3331   001B80  0012               	return		;funcret
  3332   001B82                     __end_ofi2_I2C_MasterClearIrq:
  3333                           	callstack 0
  3334                           
  3335 ;; *************** function _I2C_DO_ADDRESS_NACK *****************
  3336 ;; Defined at:
  3337 ;;		line 501 in file "mcc_generated_files/i2c_master.c"
  3338 ;; Parameters:    Size  Location     Type
  3339 ;;		None
  3340 ;; Auto vars:     Size  Location     Type
  3341 ;;		None
  3342 ;; Return value:  Size  Location     Type
  3343 ;;                  1    wreg      enum E3121
  3344 ;; Registers used:
  3345 ;;		wreg, fsr2l, fsr2h, status,2, status,0, pcl, pclath, pclatu, tosl, prodl, prodh, cstack
  3346 ;; Tracked objects:
  3347 ;;		On entry : 0/0
  3348 ;;		On exit  : 0/0
  3349 ;;		Unchanged: 0/0
  3350 ;; Data sizes:     COMRAM   BANK0   BANK1   BANK2   BANK3   BANK4   BANK5   BANK6   BANK7   BANK8   BANK9  BANK10  BANK1
      +1  BANK12  BANK13  BANK14  BANK15
  3351 ;;      Params:         0       0       0       0       0       0       0       0       0       0       0       0       
      +0       0       0       0       0
  3352 ;;      Locals:         0       0       0       0       0       0       0       0       0       0       0       0       
      +0       0       0       0       0
  3353 ;;      Temps:          2       0       0       0       0       0       0       0       0       0       0       0       
      +0       0       0       0       0
  3354 ;;      Totals:         2       0       0       0       0       0       0       0       0       0       0       0       
      +0       0       0       0       0
  3355 ;;Total ram usage:        2 bytes
  3356 ;; Hardware stack levels used: 1
  3357 ;; Hardware stack levels required when called: 3
  3358 ;; This function calls:
  3359 ;;		NULL
  3360 ;;		_I2C_CallbackReturnReset
  3361 ;;		_I2C_CallbackReturnStop
  3362 ;;		_I2C_DO_SEND_RESTART
  3363 ;;		_I2C_DO_SEND_STOP
  3364 ;;		_rd1RegCompleteHandler
  3365 ;;		_rd2RegCompleteHandler
  3366 ;;		_rdBlkRegCompleteHandler
  3367 ;;		_wr1RegCompleteHandler
  3368 ;;		_wr2RegCompleteHandler
  3369 ;; This function is called by:
  3370 ;;		_I2C_MasterFsm
  3371 ;; This function uses a non-reentrant model
  3372 ;;
  3373                           
  3374                           	psect	text38
  3375   00165C                     __ptext38:
  3376                           	callstack 0
  3377   00165C                     _I2C_DO_ADDRESS_NACK:
  3378                           	callstack 19
  3379   00165C                     
  3380                           ;mcc_generated_files/i2c_master.c: 503:     I2C_Status.addressNackCheck = 0;
  3381   00165C  0100               	movlb	0	; () banked
  3382   00165E  9183               	bcf	(_I2C_Status+35)& (0+255),0,b
  3383   001660                     
  3384                           ; BSR set to: 0
  3385                           ;mcc_generated_files/i2c_master.c: 504:     I2C_Status.error = I2C_FAIL;
  3386   001660  0E02               	movlw	2
  3387   001662  6F82               	movwf	(_I2C_Status+34)& (0+255),b
  3388                           
  3389                           ;mcc_generated_files/i2c_master.c: 505:     switch(I2C_Status.callbackTable[I2C_ADDR_NAC
      +                          K](I2C_Status.callbackPayload[I2C_ADDR_NACK]))
  3390   001664  EF3C  F00B         	goto	i2l2759
  3391   001668                     i2l2749:
  3392                           
  3393                           ;mcc_generated_files/i2c_master.c: 509:             return I2C_DO_SEND_RESTART();
  3394   001668  EC9C  F00D         	call	_I2C_DO_SEND_RESTART	;wreg free
  3395   00166C  EF60  F00B         	goto	i2l424
  3396   001670                     i2l2753:
  3397                           
  3398                           ;mcc_generated_files/i2c_master.c: 511:             return I2C_DO_SEND_STOP();
  3399   001670  EC98  F00D         	call	_I2C_DO_SEND_STOP	;wreg free
  3400   001674  EF60  F00B         	goto	i2l424
  3401   001678                     i2l2759:
  3402                           
  3403                           ; BSR set to: 0
  3404   001678  C070  F00A         	movff	_I2C_Status+16,I2C_CallbackReturnReset@funPtr
  3405   00167C  C071  F00B         	movff	_I2C_Status+17,I2C_CallbackReturnReset@funPtr+1
  3406   001680  D802               	call	i2u78_48
  3407   001682  EF4C  F00B         	goto	i2u78_49
  3408   001686                     i2u78_48:
  3409   001686  0005               	push	
  3410   001688  6EFA               	movwf	pclath,c
  3411   00168A  5164               	movf	(_I2C_Status+4)& (0+255),w,b
  3412   00168C  6EFD               	movwf	tosl,c
  3413   00168E  5165               	movf	(_I2C_Status+5)& (0+255),w,b
  3414   001690  6EFE               	movwf	tosh,c
  3415   001692  6AFF               	clrf	tosu,c
  3416   001694  50FA               	movf	pclath,w,c
  3417   001696  0012               	return		;indir
  3418   001698                     i2u78_49:
  3419   001698  6E0C               	movwf	??_I2C_DO_ADDRESS_NACK^0,c
  3420   00169A  6A0D               	clrf	(??_I2C_DO_ADDRESS_NACK+1)^0,c
  3421                           
  3422                           ; Switch on 2 bytes has been partitioned into a top level switch of size 1, and 1 sub-sw
      +                          itches
  3423                           ; Switch size 1, requested type "simple"
  3424                           ; Number of cases is 1, Range of values is 0 to 0
  3425                           ; switch strategies available:
  3426                           ; Name         Instructions Cycles
  3427                           ; simple_byte            4     3 (average)
  3428                           ;	Chosen strategy is simple_byte
  3429   00169C  500D               	movf	(??_I2C_DO_ADDRESS_NACK+1)^0,w,c
  3430   00169E  0A00               	xorlw	0	; case 0
  3431   0016A0  B4D8               	btfsc	status,2,c
  3432   0016A2  EF55  F00B         	goto	i2l3247
  3433   0016A6  EF38  F00B         	goto	i2l2753
  3434   0016AA                     i2l3247:
  3435                           
  3436                           ; Switch size 1, requested type "simple"
  3437                           ; Number of cases is 2, Range of values is 2 to 3
  3438                           ; switch strategies available:
  3439                           ; Name         Instructions Cycles
  3440                           ; simple_byte            7     4 (average)
  3441                           ;	Chosen strategy is simple_byte
  3442   0016AA  500C               	movf	??_I2C_DO_ADDRESS_NACK^0,w,c
  3443   0016AC  0A02               	xorlw	2	; case 2
  3444   0016AE  B4D8               	btfsc	status,2,c
  3445   0016B0  EF34  F00B         	goto	i2l2749
  3446   0016B4  0A01               	xorlw	1	; case 3
  3447   0016B6  B4D8               	btfsc	status,2,c
  3448   0016B8  EF34  F00B         	goto	i2l2749
  3449   0016BC  EF38  F00B         	goto	i2l2753
  3450   0016C0                     i2l424:
  3451   0016C0  0012               	return		;funcret
  3452   0016C2                     __end_of_I2C_DO_ADDRESS_NACK:
  3453                           	callstack 0
  3454                           
  3455 ;; *************** function _I2C_DO_RESET *****************
  3456 ;; Defined at:
  3457 ;;		line 495 in file "mcc_generated_files/i2c_master.c"
  3458 ;; Parameters:    Size  Location     Type
  3459 ;;		None
  3460 ;; Auto vars:     Size  Location     Type
  3461 ;;		None
  3462 ;; Return value:  Size  Location     Type
  3463 ;;                  1    wreg      enum E3121
  3464 ;; Registers used:
  3465 ;;		wreg, status,2
  3466 ;; Tracked objects:
  3467 ;;		On entry : 0/0
  3468 ;;		On exit  : 0/0
  3469 ;;		Unchanged: 0/0
  3470 ;; Data sizes:     COMRAM   BANK0   BANK1   BANK2   BANK3   BANK4   BANK5   BANK6   BANK7   BANK8   BANK9  BANK10  BANK1
      +1  BANK12  BANK13  BANK14  BANK15
  3471 ;;      Params:         0       0       0       0       0       0       0       0       0       0       0       0       
      +0       0       0       0       0
  3472 ;;      Locals:         0       0       0       0       0       0       0       0       0       0       0       0       
      +0       0       0       0       0
  3473 ;;      Temps:          0       0       0       0       0       0       0       0       0       0       0       0       
      +0       0       0       0       0
  3474 ;;      Totals:         0       0       0       0       0       0       0       0       0       0       0       0       
      +0       0       0       0       0
  3475 ;;Total ram usage:        0 bytes
  3476 ;; Hardware stack levels used: 1
  3477 ;; This function calls:
  3478 ;;		Nothing
  3479 ;; This function is called by:
  3480 ;;		_I2C_MasterFsm
  3481 ;; This function uses a non-reentrant model
  3482 ;;
  3483                           
  3484                           	psect	text39
  3485   001AB2                     __ptext39:
  3486                           	callstack 0
  3487   001AB2                     _I2C_DO_RESET:
  3488                           	callstack 22
  3489   001AB2                     
  3490                           ;mcc_generated_files/i2c_master.c: 497:     I2C_Status.busy = 0;
  3491   001AB2  0100               	movlb	0	; () banked
  3492   001AB4  9383               	bcf	(_I2C_Status+35)& (0+255),1,b
  3493   001AB6                     
  3494                           ; BSR set to: 0
  3495                           ;mcc_generated_files/i2c_master.c: 498:     I2C_Status.error = I2C_NOERR;
  3496   001AB6  0E00               	movlw	0
  3497   001AB8  6F82               	movwf	(_I2C_Status+34)& (0+255),b
  3498   001ABA                     
  3499                           ; BSR set to: 0
  3500                           ;mcc_generated_files/i2c_master.c: 499:     return I2C_RESET;
  3501   001ABA  0E0E               	movlw	14
  3502   001ABC                     
  3503                           ; BSR set to: 0
  3504   001ABC  0012               	return		;funcret
  3505   001ABE                     __end_of_I2C_DO_RESET:
  3506                           	callstack 0
  3507                           
  3508 ;; *************** function _I2C_DO_RX_NACK_RESTART *****************
  3509 ;; Defined at:
  3510 ;;		line 489 in file "mcc_generated_files/i2c_master.c"
  3511 ;; Parameters:    Size  Location     Type
  3512 ;;		None
  3513 ;; Auto vars:     Size  Location     Type
  3514 ;;		None
  3515 ;; Return value:  Size  Location     Type
  3516 ;;                  1    wreg      enum E3121
  3517 ;; Registers used:
  3518 ;;		wreg, cstack
  3519 ;; Tracked objects:
  3520 ;;		On entry : 0/0
  3521 ;;		On exit  : 0/0
  3522 ;;		Unchanged: 0/0
  3523 ;; Data sizes:     COMRAM   BANK0   BANK1   BANK2   BANK3   BANK4   BANK5   BANK6   BANK7   BANK8   BANK9  BANK10  BANK1
      +1  BANK12  BANK13  BANK14  BANK15
  3524 ;;      Params:         0       0       0       0       0       0       0       0       0       0       0       0       
      +0       0       0       0       0
  3525 ;;      Locals:         0       0       0       0       0       0       0       0       0       0       0       0       
      +0       0       0       0       0
  3526 ;;      Temps:          0       0       0       0       0       0       0       0       0       0       0       0       
      +0       0       0       0       0
  3527 ;;      Totals:         0       0       0       0       0       0       0       0       0       0       0       0       
      +0       0       0       0       0
  3528 ;;Total ram usage:        0 bytes
  3529 ;; Hardware stack levels used: 1
  3530 ;; Hardware stack levels required when called: 1
  3531 ;; This function calls:
  3532 ;;		_I2C_MasterSendNack
  3533 ;; This function is called by:
  3534 ;;		_I2C_DO_RX
  3535 ;;		_I2C_MasterFsm
  3536 ;; This function uses a non-reentrant model
  3537 ;;
  3538                           
  3539                           	psect	text40
  3540   001B18                     __ptext40:
  3541                           	callstack 0
  3542   001B18                     _I2C_DO_RX_NACK_RESTART:
  3543                           	callstack 21
  3544   001B18                     
  3545                           ;mcc_generated_files/i2c_master.c: 491:     I2C_MasterSendNack();
  3546   001B18  ECB2  F00D         	call	_I2C_MasterSendNack	;wreg free
  3547   001B1C                     
  3548                           ;mcc_generated_files/i2c_master.c: 492:     return I2C_SEND_RESTART;
  3549   001B1C  0E09               	movlw	9
  3550   001B1E  0012               	return		;funcret
  3551   001B20                     __end_of_I2C_DO_RX_NACK_RESTART:
  3552                           	callstack 0
  3553                           
  3554 ;; *************** function _I2C_DO_RX_NACK_STOP *****************
  3555 ;; Defined at:
  3556 ;;		line 483 in file "mcc_generated_files/i2c_master.c"
  3557 ;; Parameters:    Size  Location     Type
  3558 ;;		None
  3559 ;; Auto vars:     Size  Location     Type
  3560 ;;		None
  3561 ;; Return value:  Size  Location     Type
  3562 ;;                  1    wreg      enum E3121
  3563 ;; Registers used:
  3564 ;;		wreg, cstack
  3565 ;; Tracked objects:
  3566 ;;		On entry : 0/0
  3567 ;;		On exit  : 0/0
  3568 ;;		Unchanged: 0/0
  3569 ;; Data sizes:     COMRAM   BANK0   BANK1   BANK2   BANK3   BANK4   BANK5   BANK6   BANK7   BANK8   BANK9  BANK10  BANK1
      +1  BANK12  BANK13  BANK14  BANK15
  3570 ;;      Params:         0       0       0       0       0       0       0       0       0       0       0       0       
      +0       0       0       0       0
  3571 ;;      Locals:         0       0       0       0       0       0       0       0       0       0       0       0       
      +0       0       0       0       0
  3572 ;;      Temps:          0       0       0       0       0       0       0       0       0       0       0       0       
      +0       0       0       0       0
  3573 ;;      Totals:         0       0       0       0       0       0       0       0       0       0       0       0       
      +0       0       0       0       0
  3574 ;;Total ram usage:        0 bytes
  3575 ;; Hardware stack levels used: 1
  3576 ;; Hardware stack levels required when called: 1
  3577 ;; This function calls:
  3578 ;;		_I2C_MasterSendNack
  3579 ;; This function is called by:
  3580 ;;		_I2C_DO_RX
  3581 ;;		_I2C_MasterFsm
  3582 ;; This function uses a non-reentrant model
  3583 ;;
  3584                           
  3585                           	psect	text41
  3586   001B20                     __ptext41:
  3587                           	callstack 0
  3588   001B20                     _I2C_DO_RX_NACK_STOP:
  3589                           	callstack 21
  3590   001B20                     
  3591                           ;mcc_generated_files/i2c_master.c: 485:     I2C_MasterSendNack();
  3592   001B20  ECB2  F00D         	call	_I2C_MasterSendNack	;wreg free
  3593   001B24                     
  3594                           ;mcc_generated_files/i2c_master.c: 486:     return I2C_SEND_STOP;
  3595   001B24  0E0A               	movlw	10
  3596   001B26  0012               	return		;funcret
  3597   001B28                     __end_of_I2C_DO_RX_NACK_STOP:
  3598                           	callstack 0
  3599                           
  3600 ;; *************** function _I2C_DO_RX_ACK *****************
  3601 ;; Defined at:
  3602 ;;		line 476 in file "mcc_generated_files/i2c_master.c"
  3603 ;; Parameters:    Size  Location     Type
  3604 ;;		None
  3605 ;; Auto vars:     Size  Location     Type
  3606 ;;		None
  3607 ;; Return value:  Size  Location     Type
  3608 ;;                  1    wreg      enum E3121
  3609 ;; Registers used:
  3610 ;;		wreg, cstack
  3611 ;; Tracked objects:
  3612 ;;		On entry : 0/0
  3613 ;;		On exit  : 0/0
  3614 ;;		Unchanged: 0/0
  3615 ;; Data sizes:     COMRAM   BANK0   BANK1   BANK2   BANK3   BANK4   BANK5   BANK6   BANK7   BANK8   BANK9  BANK10  BANK1
      +1  BANK12  BANK13  BANK14  BANK15
  3616 ;;      Params:         0       0       0       0       0       0       0       0       0       0       0       0       
      +0       0       0       0       0
  3617 ;;      Locals:         0       0       0       0       0       0       0       0       0       0       0       0       
      +0       0       0       0       0
  3618 ;;      Temps:          0       0       0       0       0       0       0       0       0       0       0       0       
      +0       0       0       0       0
  3619 ;;      Totals:         0       0       0       0       0       0       0       0       0       0       0       0       
      +0       0       0       0       0
  3620 ;;Total ram usage:        0 bytes
  3621 ;; Hardware stack levels used: 1
  3622 ;; Hardware stack levels required when called: 1
  3623 ;; This function calls:
  3624 ;;		_I2C_MasterSendAck
  3625 ;; This function is called by:
  3626 ;;		_I2C_MasterFsm
  3627 ;; This function uses a non-reentrant model
  3628 ;;
  3629                           
  3630                           	psect	text42
  3631   001B28                     __ptext42:
  3632                           	callstack 0
  3633   001B28                     _I2C_DO_RX_ACK:
  3634                           	callstack 21
  3635   001B28                     
  3636                           ;mcc_generated_files/i2c_master.c: 478:     I2C_MasterSendAck();
  3637   001B28  ECAF  F00D         	call	_I2C_MasterSendAck	;wreg free
  3638   001B2C                     
  3639                           ;mcc_generated_files/i2c_master.c: 479:     return I2C_RCEN;
  3640   001B2C  0E05               	movlw	5
  3641   001B2E  0012               	return		;funcret
  3642   001B30                     __end_of_I2C_DO_RX_ACK:
  3643                           	callstack 0
  3644                           
  3645 ;; *************** function _I2C_DO_SEND_STOP *****************
  3646 ;; Defined at:
  3647 ;;		line 470 in file "mcc_generated_files/i2c_master.c"
  3648 ;; Parameters:    Size  Location     Type
  3649 ;;		None
  3650 ;; Auto vars:     Size  Location     Type
  3651 ;;		None
  3652 ;; Return value:  Size  Location     Type
  3653 ;;                  1    wreg      enum E3121
  3654 ;; Registers used:
  3655 ;;		wreg, cstack
  3656 ;; Tracked objects:
  3657 ;;		On entry : 0/0
  3658 ;;		On exit  : 0/0
  3659 ;;		Unchanged: 0/0
  3660 ;; Data sizes:     COMRAM   BANK0   BANK1   BANK2   BANK3   BANK4   BANK5   BANK6   BANK7   BANK8   BANK9  BANK10  BANK1
      +1  BANK12  BANK13  BANK14  BANK15
  3661 ;;      Params:         0       0       0       0       0       0       0       0       0       0       0       0       
      +0       0       0       0       0
  3662 ;;      Locals:         0       0       0       0       0       0       0       0       0       0       0       0       
      +0       0       0       0       0
  3663 ;;      Temps:          0       0       0       0       0       0       0       0       0       0       0       0       
      +0       0       0       0       0
  3664 ;;      Totals:         0       0       0       0       0       0       0       0       0       0       0       0       
      +0       0       0       0       0
  3665 ;;Total ram usage:        0 bytes
  3666 ;; Hardware stack levels used: 1
  3667 ;; Hardware stack levels required when called: 1
  3668 ;; This function calls:
  3669 ;;		_I2C_MasterStop
  3670 ;; This function is called by:
  3671 ;;		_I2C_DO_TX
  3672 ;;		_I2C_DO_TX_EMPTY
  3673 ;;		_I2C_DO_ADDRESS_NACK
  3674 ;;		_I2C_MasterFsm
  3675 ;; This function uses a non-reentrant model
  3676 ;;
  3677                           
  3678                           	psect	text43
  3679   001B30                     __ptext43:
  3680                           	callstack 0
  3681   001B30                     _I2C_DO_SEND_STOP:
  3682                           	callstack 20
  3683   001B30                     
  3684                           ;mcc_generated_files/i2c_master.c: 472:     I2C_MasterStop();
  3685   001B30  ECCB  F00D         	call	_I2C_MasterStop	;wreg free
  3686   001B34                     
  3687                           ;mcc_generated_files/i2c_master.c: 473:     return I2C_IDLE;
  3688   001B34  0E00               	movlw	0
  3689   001B36  0012               	return		;funcret
  3690   001B38                     __end_of_I2C_DO_SEND_STOP:
  3691                           	callstack 0
  3692                           
  3693 ;; *************** function _I2C_DO_SEND_RESTART *****************
  3694 ;; Defined at:
  3695 ;;		line 464 in file "mcc_generated_files/i2c_master.c"
  3696 ;; Parameters:    Size  Location     Type
  3697 ;;		None
  3698 ;; Auto vars:     Size  Location     Type
  3699 ;;		None
  3700 ;; Return value:  Size  Location     Type
  3701 ;;                  1    wreg      enum E3121
  3702 ;; Registers used:
  3703 ;;		wreg, cstack
  3704 ;; Tracked objects:
  3705 ;;		On entry : 0/0
  3706 ;;		On exit  : 0/0
  3707 ;;		Unchanged: 0/0
  3708 ;; Data sizes:     COMRAM   BANK0   BANK1   BANK2   BANK3   BANK4   BANK5   BANK6   BANK7   BANK8   BANK9  BANK10  BANK1
      +1  BANK12  BANK13  BANK14  BANK15
  3709 ;;      Params:         0       0       0       0       0       0       0       0       0       0       0       0       
      +0       0       0       0       0
  3710 ;;      Locals:         0       0       0       0       0       0       0       0       0       0       0       0       
      +0       0       0       0       0
  3711 ;;      Temps:          0       0       0       0       0       0       0       0       0       0       0       0       
      +0       0       0       0       0
  3712 ;;      Totals:         0       0       0       0       0       0       0       0       0       0       0       0       
      +0       0       0       0       0
  3713 ;;Total ram usage:        0 bytes
  3714 ;; Hardware stack levels used: 1
  3715 ;; Hardware stack levels required when called: 1
  3716 ;; This function calls:
  3717 ;;		_I2C_MasterEnableRestart
  3718 ;; This function is called by:
  3719 ;;		_I2C_DO_TX_EMPTY
  3720 ;;		_I2C_DO_ADDRESS_NACK
  3721 ;;		_I2C_MasterFsm
  3722 ;; This function uses a non-reentrant model
  3723 ;;
  3724                           
  3725                           	psect	text44
  3726   001B38                     __ptext44:
  3727                           	callstack 0
  3728   001B38                     _I2C_DO_SEND_RESTART:
  3729                           	callstack 20
  3730   001B38                     
  3731                           ;mcc_generated_files/i2c_master.c: 466:     I2C_MasterEnableRestart();
  3732   001B38  ECCD  F00D         	call	_I2C_MasterEnableRestart	;wreg free
  3733   001B3C                     
  3734                           ;mcc_generated_files/i2c_master.c: 467:     return I2C_SEND_ADR_READ;
  3735   001B3C  0E01               	movlw	1
  3736   001B3E  0012               	return		;funcret
  3737   001B40                     __end_of_I2C_DO_SEND_RESTART:
  3738                           	callstack 0
  3739                           
  3740 ;; *************** function _I2C_DO_SEND_RESTART_WRITE *****************
  3741 ;; Defined at:
  3742 ;;		line 457 in file "mcc_generated_files/i2c_master.c"
  3743 ;; Parameters:    Size  Location     Type
  3744 ;;		None
  3745 ;; Auto vars:     Size  Location     Type
  3746 ;;		None
  3747 ;; Return value:  Size  Location     Type
  3748 ;;                  1    wreg      enum E3121
  3749 ;; Registers used:
  3750 ;;		wreg, cstack
  3751 ;; Tracked objects:
  3752 ;;		On entry : 0/0
  3753 ;;		On exit  : 0/0
  3754 ;;		Unchanged: 0/0
  3755 ;; Data sizes:     COMRAM   BANK0   BANK1   BANK2   BANK3   BANK4   BANK5   BANK6   BANK7   BANK8   BANK9  BANK10  BANK1
      +1  BANK12  BANK13  BANK14  BANK15
  3756 ;;      Params:         0       0       0       0       0       0       0       0       0       0       0       0       
      +0       0       0       0       0
  3757 ;;      Locals:         0       0       0       0       0       0       0       0       0       0       0       0       
      +0       0       0       0       0
  3758 ;;      Temps:          0       0       0       0       0       0       0       0       0       0       0       0       
      +0       0       0       0       0
  3759 ;;      Totals:         0       0       0       0       0       0       0       0       0       0       0       0       
      +0       0       0       0       0
  3760 ;;Total ram usage:        0 bytes
  3761 ;; Hardware stack levels used: 1
  3762 ;; Hardware stack levels required when called: 1
  3763 ;; This function calls:
  3764 ;;		_I2C_MasterEnableRestart
  3765 ;; This function is called by:
  3766 ;;		_I2C_DO_TX
  3767 ;;		_I2C_MasterFsm
  3768 ;; This function uses a non-reentrant model
  3769 ;;
  3770                           
  3771                           	psect	text45
  3772   001B40                     __ptext45:
  3773                           	callstack 0
  3774   001B40                     _I2C_DO_SEND_RESTART_WRITE:
  3775                           	callstack 20
  3776   001B40                     
  3777                           ;mcc_generated_files/i2c_master.c: 459:     I2C_MasterEnableRestart();
  3778   001B40  ECCD  F00D         	call	_I2C_MasterEnableRestart	;wreg free
  3779   001B44                     
  3780                           ;mcc_generated_files/i2c_master.c: 460:     return I2C_SEND_ADR_WRITE;
  3781   001B44  0E02               	movlw	2
  3782   001B46  0012               	return		;funcret
  3783   001B48                     __end_of_I2C_DO_SEND_RESTART_WRITE:
  3784                           	callstack 0
  3785                           
  3786 ;; *************** function _I2C_DO_SEND_RESTART_READ *****************
  3787 ;; Defined at:
  3788 ;;		line 451 in file "mcc_generated_files/i2c_master.c"
  3789 ;; Parameters:    Size  Location     Type
  3790 ;;		None
  3791 ;; Auto vars:     Size  Location     Type
  3792 ;;		None
  3793 ;; Return value:  Size  Location     Type
  3794 ;;                  1    wreg      enum E3121
  3795 ;; Registers used:
  3796 ;;		wreg, cstack
  3797 ;; Tracked objects:
  3798 ;;		On entry : 0/0
  3799 ;;		On exit  : 0/0
  3800 ;;		Unchanged: 0/0
  3801 ;; Data sizes:     COMRAM   BANK0   BANK1   BANK2   BANK3   BANK4   BANK5   BANK6   BANK7   BANK8   BANK9  BANK10  BANK1
      +1  BANK12  BANK13  BANK14  BANK15
  3802 ;;      Params:         0       0       0       0       0       0       0       0       0       0       0       0       
      +0       0       0       0       0
  3803 ;;      Locals:         0       0       0       0       0       0       0       0       0       0       0       0       
      +0       0       0       0       0
  3804 ;;      Temps:          0       0       0       0       0       0       0       0       0       0       0       0       
      +0       0       0       0       0
  3805 ;;      Totals:         0       0       0       0       0       0       0       0       0       0       0       0       
      +0       0       0       0       0
  3806 ;;Total ram usage:        0 bytes
  3807 ;; Hardware stack levels used: 1
  3808 ;; Hardware stack levels required when called: 1
  3809 ;; This function calls:
  3810 ;;		_I2C_MasterEnableRestart
  3811 ;; This function is called by:
  3812 ;;		_I2C_DO_TX
  3813 ;;		_I2C_MasterFsm
  3814 ;; This function uses a non-reentrant model
  3815 ;;
  3816                           
  3817                           	psect	text46
  3818   001B48                     __ptext46:
  3819                           	callstack 0
  3820   001B48                     _I2C_DO_SEND_RESTART_READ:
  3821                           	callstack 20
  3822   001B48                     
  3823                           ;mcc_generated_files/i2c_master.c: 453:     I2C_MasterEnableRestart();
  3824   001B48  ECCD  F00D         	call	_I2C_MasterEnableRestart	;wreg free
  3825   001B4C                     
  3826                           ;mcc_generated_files/i2c_master.c: 454:     return I2C_SEND_ADR_READ;
  3827   001B4C  0E01               	movlw	1
  3828   001B4E  0012               	return		;funcret
  3829   001B50                     __end_of_I2C_DO_SEND_RESTART_READ:
  3830                           	callstack 0
  3831                           
  3832 ;; *************** function _I2C_DO_RCEN *****************
  3833 ;; Defined at:
  3834 ;;		line 404 in file "mcc_generated_files/i2c_master.c"
  3835 ;; Parameters:    Size  Location     Type
  3836 ;;		None
  3837 ;; Auto vars:     Size  Location     Type
  3838 ;;		None
  3839 ;; Return value:  Size  Location     Type
  3840 ;;                  1    wreg      enum E3121
  3841 ;; Registers used:
  3842 ;;		wreg, cstack
  3843 ;; Tracked objects:
  3844 ;;		On entry : 0/0
  3845 ;;		On exit  : 0/0
  3846 ;;		Unchanged: 0/0
  3847 ;; Data sizes:     COMRAM   BANK0   BANK1   BANK2   BANK3   BANK4   BANK5   BANK6   BANK7   BANK8   BANK9  BANK10  BANK1
      +1  BANK12  BANK13  BANK14  BANK15
  3848 ;;      Params:         0       0       0       0       0       0       0       0       0       0       0       0       
      +0       0       0       0       0
  3849 ;;      Locals:         0       0       0       0       0       0       0       0       0       0       0       0       
      +0       0       0       0       0
  3850 ;;      Temps:          0       0       0       0       0       0       0       0       0       0       0       0       
      +0       0       0       0       0
  3851 ;;      Totals:         0       0       0       0       0       0       0       0       0       0       0       0       
      +0       0       0       0       0
  3852 ;;Total ram usage:        0 bytes
  3853 ;; Hardware stack levels used: 1
  3854 ;; Hardware stack levels required when called: 1
  3855 ;; This function calls:
  3856 ;;		_I2C_MasterStartRx
  3857 ;; This function is called by:
  3858 ;;		_I2C_MasterFsm
  3859 ;; This function uses a non-reentrant model
  3860 ;;
  3861                           
  3862                           	psect	text47
  3863   001ABE                     __ptext47:
  3864                           	callstack 0
  3865   001ABE                     _I2C_DO_RCEN:
  3866                           	callstack 21
  3867   001ABE                     
  3868                           ;mcc_generated_files/i2c_master.c: 406:     I2C_Status.addressNackCheck = 0;
  3869   001ABE  0100               	movlb	0	; () banked
  3870   001AC0  9183               	bcf	(_I2C_Status+35)& (0+255),0,b
  3871   001AC2                     
  3872                           ; BSR set to: 0
  3873                           ;mcc_generated_files/i2c_master.c: 407:     I2C_MasterStartRx();
  3874   001AC2  ECC5  F00D         	call	_I2C_MasterStartRx	;wreg free
  3875   001AC6                     
  3876                           ;mcc_generated_files/i2c_master.c: 408:     return I2C_RX;
  3877   001AC6  0E04               	movlw	4
  3878   001AC8  0012               	return		;funcret
  3879   001ACA                     __end_of_I2C_DO_RCEN:
  3880                           	callstack 0
  3881                           
  3882 ;; *************** function _I2C_DO_RX *****************
  3883 ;; Defined at:
  3884 ;;		line 380 in file "mcc_generated_files/i2c_master.c"
  3885 ;; Parameters:    Size  Location     Type
  3886 ;;		None
  3887 ;; Auto vars:     Size  Location     Type
  3888 ;;		None
  3889 ;; Return value:  Size  Location     Type
  3890 ;;                  1    wreg      enum E3121
  3891 ;; Registers used:
  3892 ;;		wreg, fsr2l, fsr2h, status,2, status,0, pcl, pclath, pclatu, tosl, prodl, prodh, cstack
  3893 ;; Tracked objects:
  3894 ;;		On entry : 0/0
  3895 ;;		On exit  : 0/0
  3896 ;;		Unchanged: 0/0
  3897 ;; Data sizes:     COMRAM   BANK0   BANK1   BANK2   BANK3   BANK4   BANK5   BANK6   BANK7   BANK8   BANK9  BANK10  BANK1
      +1  BANK12  BANK13  BANK14  BANK15
  3898 ;;      Params:         0       0       0       0       0       0       0       0       0       0       0       0       
      +0       0       0       0       0
  3899 ;;      Locals:         0       0       0       0       0       0       0       0       0       0       0       0       
      +0       0       0       0       0
  3900 ;;      Temps:          2       0       0       0       0       0       0       0       0       0       0       0       
      +0       0       0       0       0
  3901 ;;      Totals:         2       0       0       0       0       0       0       0       0       0       0       0       
      +0       0       0       0       0
  3902 ;;Total ram usage:        2 bytes
  3903 ;; Hardware stack levels used: 1
  3904 ;; Hardware stack levels required when called: 3
  3905 ;; This function calls:
  3906 ;;		NULL
  3907 ;;		_I2C_CallbackReturnReset
  3908 ;;		_I2C_CallbackReturnStop
  3909 ;;		_I2C_DO_RX_NACK_RESTART
  3910 ;;		_I2C_DO_RX_NACK_STOP
  3911 ;;		_I2C_MasterGetRxData
  3912 ;;		_I2C_MasterSendAck
  3913 ;;		_rd1RegCompleteHandler
  3914 ;;		_rd2RegCompleteHandler
  3915 ;;		_rdBlkRegCompleteHandler
  3916 ;;		_wr1RegCompleteHandler
  3917 ;;		_wr2RegCompleteHandler
  3918 ;; This function is called by:
  3919 ;;		_I2C_MasterFsm
  3920 ;; This function uses a non-reentrant model
  3921 ;;
  3922                           
  3923                           	psect	text48
  3924   0011C4                     __ptext48:
  3925                           	callstack 0
  3926   0011C4                     _I2C_DO_RX:
  3927                           	callstack 19
  3928   0011C4                     
  3929                           ;mcc_generated_files/i2c_master.c: 382:     *I2C_Status.data_ptr++ = I2C_MasterGetRxData
      +                          ();
  3930   0011C4  ECC3  F00D         	call	_I2C_MasterGetRxData	;wreg free
  3931   0011C8  C07D  FFD9         	movff	_I2C_Status+29,fsr2l
  3932   0011CC  C07E  FFDA         	movff	_I2C_Status+30,fsr2h
  3933   0011D0  6EDF               	movwf	indf2,c
  3934   0011D2  0100               	movlb	0	; () banked
  3935   0011D4  4B7D               	infsnz	(_I2C_Status+29)& (0+255),f,b
  3936   0011D6  2B7E               	incf	(_I2C_Status+30)& (0+255),f,b
  3937   0011D8                     
  3938                           ; BSR set to: 0
  3939                           ;mcc_generated_files/i2c_master.c: 383:     if(--I2C_Status.data_length)
  3940   0011D8  077F               	decf	(_I2C_Status+31)& (0+255),f,b
  3941   0011DA  A0D8               	btfss	status,0,c
  3942   0011DC  0780               	decf	(_I2C_Status+32)& (0+255),f,b
  3943   0011DE  517F               	movf	(_I2C_Status+31)& (0+255),w,b
  3944   0011E0  1180               	iorwf	(_I2C_Status+32)& (0+255),w,b
  3945   0011E2  B4D8               	btfsc	status,2,c
  3946   0011E4  EFF6  F008         	goto	i2u75_41
  3947   0011E8  EFF8  F008         	goto	i2u75_40
  3948   0011EC                     i2u75_41:
  3949   0011EC  EFFD  F008         	goto	i2l361
  3950   0011F0                     i2u75_40:
  3951   0011F0                     
  3952                           ; BSR set to: 0
  3953                           ;mcc_generated_files/i2c_master.c: 384:     {;mcc_generated_files/i2c_master.c: 385:    
      +                               I2C_MasterSendAck();
  3954   0011F0  ECAF  F00D         	call	_I2C_MasterSendAck	;wreg free
  3955   0011F4                     
  3956                           ;mcc_generated_files/i2c_master.c: 386:         return I2C_RCEN;
  3957   0011F4  0E05               	movlw	5
  3958   0011F6  EF34  F009         	goto	i2l362
  3959   0011FA                     i2l361:
  3960                           
  3961                           ; BSR set to: 0
  3962                           ;mcc_generated_files/i2c_master.c: 389:     {;mcc_generated_files/i2c_master.c: 390:    
      +                               I2C_Status.bufferFree = 1;
  3963   0011FA  8783               	bsf	(_I2C_Status+35)& (0+255),3,b
  3964                           
  3965                           ;mcc_generated_files/i2c_master.c: 391:         switch(I2C_Status.callbackTable[I2C_DATA
      +                          _COMPLETE](I2C_Status.callbackPayload[I2C_DATA_COMPLETE]))
  3966   0011FC  EF08  F009         	goto	i2l2693
  3967   001200                     i2l2683:
  3968                           
  3969                           ;mcc_generated_files/i2c_master.c: 395:                 return I2C_DO_RX_NACK_RESTART();
  3970   001200  EC8C  F00D         	call	_I2C_DO_RX_NACK_RESTART	;wreg free
  3971   001204  EF34  F009         	goto	i2l362
  3972   001208                     i2l2687:
  3973                           
  3974                           ;mcc_generated_files/i2c_master.c: 399:                 return I2C_DO_RX_NACK_STOP();
  3975   001208  EC90  F00D         	call	_I2C_DO_RX_NACK_STOP	;wreg free
  3976   00120C  EF34  F009         	goto	i2l362
  3977   001210                     i2l2693:
  3978                           
  3979                           ; BSR set to: 0
  3980   001210  C06C  F00A         	movff	_I2C_Status+12,I2C_CallbackReturnReset@funPtr
  3981   001214  C06D  F00B         	movff	_I2C_Status+13,I2C_CallbackReturnReset@funPtr+1
  3982   001218  D802               	call	i2u76_48
  3983   00121A  EF18  F009         	goto	i2u76_49
  3984   00121E                     i2u76_48:
  3985   00121E  0005               	push	
  3986   001220  6EFA               	movwf	pclath,c
  3987   001222  5160               	movf	_I2C_Status& (0+255),w,b
  3988   001224  6EFD               	movwf	tosl,c
  3989   001226  5161               	movf	(_I2C_Status+1)& (0+255),w,b
  3990   001228  6EFE               	movwf	tosh,c
  3991   00122A  6AFF               	clrf	tosu,c
  3992   00122C  50FA               	movf	pclath,w,c
  3993   00122E  0012               	return		;indir
  3994   001230                     i2u76_49:
  3995   001230  6E0C               	movwf	??_I2C_DO_RX^0,c
  3996   001232  6A0D               	clrf	(??_I2C_DO_RX+1)^0,c
  3997                           
  3998                           ; Switch on 2 bytes has been partitioned into a top level switch of size 1, and 1 sub-sw
      +                          itches
  3999                           ; Switch size 1, requested type "simple"
  4000                           ; Number of cases is 1, Range of values is 0 to 0
  4001                           ; switch strategies available:
  4002                           ; Name         Instructions Cycles
  4003                           ; simple_byte            4     3 (average)
  4004                           ;	Chosen strategy is simple_byte
  4005   001234  500D               	movf	(??_I2C_DO_RX+1)^0,w,c
  4006   001236  0A00               	xorlw	0	; case 0
  4007   001238  B4D8               	btfsc	status,2,c
  4008   00123A  EF21  F009         	goto	i2l3249
  4009   00123E  EF04  F009         	goto	i2l2687
  4010   001242                     i2l3249:
  4011                           
  4012                           ; Switch size 1, requested type "simple"
  4013                           ; Number of cases is 4, Range of values is 1 to 4
  4014                           ; switch strategies available:
  4015                           ; Name         Instructions Cycles
  4016                           ; simple_byte           13     7 (average)
  4017                           ;	Chosen strategy is simple_byte
  4018   001242  500C               	movf	??_I2C_DO_RX^0,w,c
  4019   001244  0A01               	xorlw	1	; case 1
  4020   001246  B4D8               	btfsc	status,2,c
  4021   001248  EF04  F009         	goto	i2l2687
  4022   00124C  0A03               	xorlw	3	; case 2
  4023   00124E  B4D8               	btfsc	status,2,c
  4024   001250  EF00  F009         	goto	i2l2683
  4025   001254  0A01               	xorlw	1	; case 3
  4026   001256  B4D8               	btfsc	status,2,c
  4027   001258  EF00  F009         	goto	i2l2683
  4028   00125C  0A07               	xorlw	7	; case 4
  4029   00125E  B4D8               	btfsc	status,2,c
  4030   001260  EF04  F009         	goto	i2l2687
  4031   001264  EF04  F009         	goto	i2l2687
  4032   001268                     i2l362:
  4033   001268  0012               	return		;funcret
  4034   00126A                     __end_of_I2C_DO_RX:
  4035                           	callstack 0
  4036                           
  4037 ;; *************** function _I2C_DO_TX *****************
  4038 ;; Defined at:
  4039 ;;		line 356 in file "mcc_generated_files/i2c_master.c"
  4040 ;; Parameters:    Size  Location     Type
  4041 ;;		None
  4042 ;; Auto vars:     Size  Location     Type
  4043 ;;		None
  4044 ;; Return value:  Size  Location     Type
  4045 ;;                  1    wreg      enum E3121
  4046 ;; Registers used:
  4047 ;;		wreg, fsr2l, fsr2h, status,2, status,0, pcl, pclath, pclatu, tosl, prodl, prodh, cstack
  4048 ;; Tracked objects:
  4049 ;;		On entry : 0/0
  4050 ;;		On exit  : 0/0
  4051 ;;		Unchanged: 0/0
  4052 ;; Data sizes:     COMRAM   BANK0   BANK1   BANK2   BANK3   BANK4   BANK5   BANK6   BANK7   BANK8   BANK9  BANK10  BANK1
      +1  BANK12  BANK13  BANK14  BANK15
  4053 ;;      Params:         0       0       0       0       0       0       0       0       0       0       0       0       
      +0       0       0       0       0
  4054 ;;      Locals:         0       0       0       0       0       0       0       0       0       0       0       0       
      +0       0       0       0       0
  4055 ;;      Temps:          2       0       0       0       0       0       0       0       0       0       0       0       
      +0       0       0       0       0
  4056 ;;      Totals:         2       0       0       0       0       0       0       0       0       0       0       0       
      +0       0       0       0       0
  4057 ;;Total ram usage:        2 bytes
  4058 ;; Hardware stack levels used: 1
  4059 ;; Hardware stack levels required when called: 3
  4060 ;; This function calls:
  4061 ;;		NULL
  4062 ;;		_I2C_CallbackReturnReset
  4063 ;;		_I2C_CallbackReturnStop
  4064 ;;		_I2C_DO_SEND_RESTART_READ
  4065 ;;		_I2C_DO_SEND_RESTART_WRITE
  4066 ;;		_I2C_DO_SEND_STOP
  4067 ;;		_I2C_MasterIsNack
  4068 ;;		_I2C_MasterSendTxData
  4069 ;;		_rd1RegCompleteHandler
  4070 ;;		_rd2RegCompleteHandler
  4071 ;;		_rdBlkRegCompleteHandler
  4072 ;;		_wr1RegCompleteHandler
  4073 ;;		_wr2RegCompleteHandler
  4074 ;; This function is called by:
  4075 ;;		_I2C_MasterFsm
  4076 ;; This function uses a non-reentrant model
  4077 ;;
  4078                           
  4079                           	psect	text49
  4080   001100                     __ptext49:
  4081                           	callstack 0
  4082   001100                     _I2C_DO_TX:
  4083                           	callstack 19
  4084   001100                     
  4085                           ;mcc_generated_files/i2c_master.c: 358:     if(I2C_MasterIsNack())
  4086   001100  EC24  F00D         	call	_I2C_MasterIsNack	;wreg free
  4087   001104  0900               	iorlw	0
  4088   001106  B4D8               	btfsc	status,2,c
  4089   001108  EF88  F008         	goto	i2u72_41
  4090   00110C  EF8A  F008         	goto	i2u72_40
  4091   001110                     i2u72_41:
  4092   001110  EFC5  F008         	goto	i2l345
  4093   001114                     i2u72_40:
  4094   001114  EF98  F008         	goto	i2l2653
  4095   001118                     i2l2639:
  4096                           
  4097                           ;mcc_generated_files/i2c_master.c: 363:                 return I2C_DO_SEND_RESTART_READ(
      +                          );
  4098   001118  ECA4  F00D         	call	_I2C_DO_SEND_RESTART_READ	;wreg free
  4099   00111C  EFE1  F008         	goto	i2l348
  4100   001120                     i2l2643:
  4101                           
  4102                           ;mcc_generated_files/i2c_master.c: 365:                   return I2C_DO_SEND_RESTART_WRI
      +                          TE();
  4103   001120  ECA0  F00D         	call	_I2C_DO_SEND_RESTART_WRITE	;wreg free
  4104   001124  EFE1  F008         	goto	i2l348
  4105   001128                     i2l2647:
  4106                           
  4107                           ;mcc_generated_files/i2c_master.c: 369:                 return I2C_DO_SEND_STOP();
  4108   001128  EC98  F00D         	call	_I2C_DO_SEND_STOP	;wreg free
  4109   00112C  EFE1  F008         	goto	i2l348
  4110   001130                     i2l2653:
  4111   001130  C072  F00A         	movff	_I2C_Status+18,I2C_CallbackReturnReset@funPtr
  4112   001134  C073  F00B         	movff	_I2C_Status+19,I2C_CallbackReturnReset@funPtr+1
  4113   001138  D802               	call	i2u73_48
  4114   00113A  EFA9  F008         	goto	i2u73_49
  4115   00113E                     i2u73_48:
  4116   00113E  0005               	push	
  4117   001140  6EFA               	movwf	pclath,c
  4118   001142  0100               	movlb	0	; () banked
  4119   001144  5166               	movf	(_I2C_Status+6)& (0+255),w,b
  4120   001146  6EFD               	movwf	tosl,c
  4121   001148  5167               	movf	(_I2C_Status+7)& (0+255),w,b
  4122   00114A  6EFE               	movwf	tosh,c
  4123   00114C  6AFF               	clrf	tosu,c
  4124   00114E  50FA               	movf	pclath,w,c
  4125   001150  0012               	return		;indir
  4126   001152                     i2u73_49:
  4127   001152  6E0C               	movwf	??_I2C_DO_TX^0,c
  4128   001154  6A0D               	clrf	(??_I2C_DO_TX+1)^0,c
  4129                           
  4130                           ; Switch on 2 bytes has been partitioned into a top level switch of size 1, and 1 sub-sw
      +                          itches
  4131                           ; Switch size 1, requested type "simple"
  4132                           ; Number of cases is 1, Range of values is 0 to 0
  4133                           ; switch strategies available:
  4134                           ; Name         Instructions Cycles
  4135                           ; simple_byte            4     3 (average)
  4136                           ;	Chosen strategy is simple_byte
  4137   001156  500D               	movf	(??_I2C_DO_TX+1)^0,w,c
  4138   001158  0A00               	xorlw	0	; case 0
  4139   00115A  B4D8               	btfsc	status,2,c
  4140   00115C  EFB2  F008         	goto	i2l3251
  4141   001160  EF94  F008         	goto	i2l2647
  4142   001164                     i2l3251:
  4143                           
  4144                           ; Switch size 1, requested type "simple"
  4145                           ; Number of cases is 4, Range of values is 1 to 4
  4146                           ; switch strategies available:
  4147                           ; Name         Instructions Cycles
  4148                           ; simple_byte           13     7 (average)
  4149                           ;	Chosen strategy is simple_byte
  4150   001164  500C               	movf	??_I2C_DO_TX^0,w,c
  4151   001166  0A01               	xorlw	1	; case 1
  4152   001168  B4D8               	btfsc	status,2,c
  4153   00116A  EF94  F008         	goto	i2l2647
  4154   00116E  0A03               	xorlw	3	; case 2
  4155   001170  B4D8               	btfsc	status,2,c
  4156   001172  EF8C  F008         	goto	i2l2639
  4157   001176  0A01               	xorlw	1	; case 3
  4158   001178  B4D8               	btfsc	status,2,c
  4159   00117A  EF90  F008         	goto	i2l2643
  4160   00117E  0A07               	xorlw	7	; case 4
  4161   001180  B4D8               	btfsc	status,2,c
  4162   001182  EF94  F008         	goto	i2l2647
  4163   001186  EF94  F008         	goto	i2l2647
  4164   00118A                     i2l345:
  4165                           
  4166                           ;mcc_generated_files/i2c_master.c: 373:     {;mcc_generated_files/i2c_master.c: 374:    
      +                               I2C_Status.addressNackCheck = 0;
  4167   00118A  0100               	movlb	0	; () banked
  4168   00118C  9183               	bcf	(_I2C_Status+35)& (0+255),0,b
  4169   00118E                     
  4170                           ; BSR set to: 0
  4171                           ;mcc_generated_files/i2c_master.c: 375:         I2C_MasterSendTxData(*I2C_Status.data_pt
      +                          r++);
  4172   00118E  C07D  FFD9         	movff	_I2C_Status+29,fsr2l
  4173   001192  C07E  FFDA         	movff	_I2C_Status+30,fsr2h
  4174   001196  4B7D               	infsnz	(_I2C_Status+29)& (0+255),f,b
  4175   001198  2B7E               	incf	(_I2C_Status+30)& (0+255),f,b
  4176   00119A  50DF               	movf	indf2,w,c
  4177   00119C  ECA8  F00D         	call	_I2C_MasterSendTxData
  4178   0011A0                     
  4179                           ;mcc_generated_files/i2c_master.c: 376:         return (--I2C_Status.data_length)?I2C_TX
      +                          :I2C_TX_EMPTY;
  4180   0011A0  0100               	movlb	0	; () banked
  4181   0011A2  077F               	decf	(_I2C_Status+31)& (0+255),f,b
  4182   0011A4  A0D8               	btfss	status,0,c
  4183   0011A6  0780               	decf	(_I2C_Status+32)& (0+255),f,b
  4184   0011A8  517F               	movf	(_I2C_Status+31)& (0+255),w,b
  4185   0011AA  1180               	iorwf	(_I2C_Status+32)& (0+255),w,b
  4186   0011AC  A4D8               	btfss	status,2,c
  4187   0011AE  EFDB  F008         	goto	i2u74_41
  4188   0011B2  EFDD  F008         	goto	i2u74_40
  4189   0011B6                     i2u74_41:
  4190   0011B6  EFE0  F008         	goto	i2l2661
  4191   0011BA                     i2u74_40:
  4192   0011BA                     
  4193                           ; BSR set to: 0
  4194   0011BA  0E06               	movlw	6
  4195   0011BC  EFE1  F008         	goto	i2l348
  4196   0011C0                     i2l2661:
  4197                           
  4198                           ; BSR set to: 0
  4199   0011C0  0E03               	movlw	3
  4200   0011C2                     i2l348:
  4201   0011C2  0012               	return		;funcret
  4202   0011C4                     __end_of_I2C_DO_TX:
  4203                           	callstack 0
  4204                           
  4205 ;; *************** function _I2C_DO_SEND_ADR_WRITE *****************
  4206 ;; Defined at:
  4207 ;;		line 349 in file "mcc_generated_files/i2c_master.c"
  4208 ;; Parameters:    Size  Location     Type
  4209 ;;		None
  4210 ;; Auto vars:     Size  Location     Type
  4211 ;;		None
  4212 ;; Return value:  Size  Location     Type
  4213 ;;                  1    wreg      enum E3121
  4214 ;; Registers used:
  4215 ;;		wreg, status,2, status,0, cstack
  4216 ;; Tracked objects:
  4217 ;;		On entry : 0/0
  4218 ;;		On exit  : 0/0
  4219 ;;		Unchanged: 0/0
  4220 ;; Data sizes:     COMRAM   BANK0   BANK1   BANK2   BANK3   BANK4   BANK5   BANK6   BANK7   BANK8   BANK9  BANK10  BANK1
      +1  BANK12  BANK13  BANK14  BANK15
  4221 ;;      Params:         0       0       0       0       0       0       0       0       0       0       0       0       
      +0       0       0       0       0
  4222 ;;      Locals:         0       0       0       0       0       0       0       0       0       0       0       0       
      +0       0       0       0       0
  4223 ;;      Temps:          0       0       0       0       0       0       0       0       0       0       0       0       
      +0       0       0       0       0
  4224 ;;      Totals:         0       0       0       0       0       0       0       0       0       0       0       0       
      +0       0       0       0       0
  4225 ;;Total ram usage:        0 bytes
  4226 ;; Hardware stack levels used: 1
  4227 ;; Hardware stack levels required when called: 1
  4228 ;; This function calls:
  4229 ;;		_I2C_MasterSendTxData
  4230 ;; This function is called by:
  4231 ;;		_I2C_MasterFsm
  4232 ;; This function uses a non-reentrant model
  4233 ;;
  4234                           
  4235                           	psect	text50
  4236   001A92                     __ptext50:
  4237                           	callstack 0
  4238   001A92                     _I2C_DO_SEND_ADR_WRITE:
  4239                           	callstack 21
  4240   001A92                     
  4241                           ;mcc_generated_files/i2c_master.c: 351:     I2C_Status.addressNackCheck = 1;
  4242   001A92  0100               	movlb	0	; () banked
  4243   001A94  8183               	bsf	(_I2C_Status+35)& (0+255),0,b
  4244   001A96                     
  4245                           ; BSR set to: 0
  4246                           ;mcc_generated_files/i2c_master.c: 352:     I2C_MasterSendTxData((uint8_t) (I2C_Status.a
      +                          ddress << 1));
  4247   001A96  517C               	movf	(_I2C_Status+28)& (0+255),w,b
  4248   001A98  257C               	addwf	(_I2C_Status+28)& (0+255),w,b
  4249   001A9A  ECA8  F00D         	call	_I2C_MasterSendTxData
  4250   001A9E                     
  4251                           ;mcc_generated_files/i2c_master.c: 353:     return I2C_TX;
  4252   001A9E  0E03               	movlw	3
  4253   001AA0  0012               	return		;funcret
  4254   001AA2                     __end_of_I2C_DO_SEND_ADR_WRITE:
  4255                           	callstack 0
  4256                           
  4257 ;; *************** function _I2C_DO_SEND_ADR_READ *****************
  4258 ;; Defined at:
  4259 ;;		line 342 in file "mcc_generated_files/i2c_master.c"
  4260 ;; Parameters:    Size  Location     Type
  4261 ;;		None
  4262 ;; Auto vars:     Size  Location     Type
  4263 ;;		None
  4264 ;; Return value:  Size  Location     Type
  4265 ;;                  1    wreg      enum E3121
  4266 ;; Registers used:
  4267 ;;		wreg, status,0, cstack
  4268 ;; Tracked objects:
  4269 ;;		On entry : 0/0
  4270 ;;		On exit  : 0/0
  4271 ;;		Unchanged: 0/0
  4272 ;; Data sizes:     COMRAM   BANK0   BANK1   BANK2   BANK3   BANK4   BANK5   BANK6   BANK7   BANK8   BANK9  BANK10  BANK1
      +1  BANK12  BANK13  BANK14  BANK15
  4273 ;;      Params:         0       0       0       0       0       0       0       0       0       0       0       0       
      +0       0       0       0       0
  4274 ;;      Locals:         0       0       0       0       0       0       0       0       0       0       0       0       
      +0       0       0       0       0
  4275 ;;      Temps:          0       0       0       0       0       0       0       0       0       0       0       0       
      +0       0       0       0       0
  4276 ;;      Totals:         0       0       0       0       0       0       0       0       0       0       0       0       
      +0       0       0       0       0
  4277 ;;Total ram usage:        0 bytes
  4278 ;; Hardware stack levels used: 1
  4279 ;; Hardware stack levels required when called: 1
  4280 ;; This function calls:
  4281 ;;		_I2C_MasterSendTxData
  4282 ;; This function is called by:
  4283 ;;		_I2C_MasterFsm
  4284 ;; This function uses a non-reentrant model
  4285 ;;
  4286                           
  4287                           	psect	text51
  4288   001AA2                     __ptext51:
  4289                           	callstack 0
  4290   001AA2                     _I2C_DO_SEND_ADR_READ:
  4291                           	callstack 21
  4292   001AA2                     
  4293                           ;mcc_generated_files/i2c_master.c: 344:     I2C_Status.addressNackCheck = 1;
  4294   001AA2  0100               	movlb	0	; () banked
  4295   001AA4  8183               	bsf	(_I2C_Status+35)& (0+255),0,b
  4296   001AA6                     
  4297                           ; BSR set to: 0
  4298                           ;mcc_generated_files/i2c_master.c: 345:     I2C_MasterSendTxData((uint8_t) (I2C_Status.a
      +                          ddress << 1 | 1));
  4299   001AA6  80D8               	bsf	status,0,c
  4300   001AA8  357C               	rlcf	(_I2C_Status+28)& (0+255),w,b
  4301   001AAA  ECA8  F00D         	call	_I2C_MasterSendTxData
  4302   001AAE                     
  4303                           ;mcc_generated_files/i2c_master.c: 346:     return I2C_RCEN;
  4304   001AAE  0E05               	movlw	5
  4305   001AB0  0012               	return		;funcret
  4306   001AB2                     __end_of_I2C_DO_SEND_ADR_READ:
  4307                           	callstack 0
  4308                           
  4309 ;; *************** function _I2C_DO_IDLE *****************
  4310 ;; Defined at:
  4311 ;;		line 335 in file "mcc_generated_files/i2c_master.c"
  4312 ;; Parameters:    Size  Location     Type
  4313 ;;		None
  4314 ;; Auto vars:     Size  Location     Type
  4315 ;;		None
  4316 ;; Return value:  Size  Location     Type
  4317 ;;                  1    wreg      enum E3121
  4318 ;; Registers used:
  4319 ;;		wreg, status,2
  4320 ;; Tracked objects:
  4321 ;;		On entry : 0/0
  4322 ;;		On exit  : 0/0
  4323 ;;		Unchanged: 0/0
  4324 ;; Data sizes:     COMRAM   BANK0   BANK1   BANK2   BANK3   BANK4   BANK5   BANK6   BANK7   BANK8   BANK9  BANK10  BANK1
      +1  BANK12  BANK13  BANK14  BANK15
  4325 ;;      Params:         0       0       0       0       0       0       0       0       0       0       0       0       
      +0       0       0       0       0
  4326 ;;      Locals:         0       0       0       0       0       0       0       0       0       0       0       0       
      +0       0       0       0       0
  4327 ;;      Temps:          0       0       0       0       0       0       0       0       0       0       0       0       
      +0       0       0       0       0
  4328 ;;      Totals:         0       0       0       0       0       0       0       0       0       0       0       0       
      +0       0       0       0       0
  4329 ;;Total ram usage:        0 bytes
  4330 ;; Hardware stack levels used: 1
  4331 ;; This function calls:
  4332 ;;		Nothing
  4333 ;; This function is called by:
  4334 ;;		_I2C_MasterFsm
  4335 ;; This function uses a non-reentrant model
  4336 ;;
  4337                           
  4338                           	psect	text52
  4339   001ACA                     __ptext52:
  4340                           	callstack 0
  4341   001ACA                     _I2C_DO_IDLE:
  4342                           	callstack 22
  4343   001ACA                     
  4344                           ;mcc_generated_files/i2c_master.c: 337:     I2C_Status.busy = 0;
  4345   001ACA  0100               	movlb	0	; () banked
  4346   001ACC  9383               	bcf	(_I2C_Status+35)& (0+255),1,b
  4347   001ACE                     
  4348                           ; BSR set to: 0
  4349                           ;mcc_generated_files/i2c_master.c: 338:     I2C_Status.error = I2C_NOERR;
  4350   001ACE  0E00               	movlw	0
  4351   001AD0  6F82               	movwf	(_I2C_Status+34)& (0+255),b
  4352   001AD2                     
  4353                           ; BSR set to: 0
  4354                           ;mcc_generated_files/i2c_master.c: 339:     return I2C_RESET;
  4355   001AD2  0E0E               	movlw	14
  4356   001AD4                     
  4357                           ; BSR set to: 0
  4358   001AD4  0012               	return		;funcret
  4359   001AD6                     __end_of_I2C_DO_IDLE:
  4360                           	callstack 0
  4361                           
  4362 ;; *************** function _I2C_DO_TX_EMPTY *****************
  4363 ;; Defined at:
  4364 ;;		line 411 in file "mcc_generated_files/i2c_master.c"
  4365 ;; Parameters:    Size  Location     Type
  4366 ;;		None
  4367 ;; Auto vars:     Size  Location     Type
  4368 ;;		None
  4369 ;; Return value:  Size  Location     Type
  4370 ;;                  1    wreg      enum E3121
  4371 ;; Registers used:
  4372 ;;		wreg, fsr2l, fsr2h, status,2, status,0, pcl, pclath, pclatu, tosl, prodl, prodh, cstack
  4373 ;; Tracked objects:
  4374 ;;		On entry : 0/0
  4375 ;;		On exit  : 0/0
  4376 ;;		Unchanged: 0/0
  4377 ;; Data sizes:     COMRAM   BANK0   BANK1   BANK2   BANK3   BANK4   BANK5   BANK6   BANK7   BANK8   BANK9  BANK10  BANK1
      +1  BANK12  BANK13  BANK14  BANK15
  4378 ;;      Params:         0       0       0       0       0       0       0       0       0       0       0       0       
      +0       0       0       0       0
  4379 ;;      Locals:         0       0       0       0       0       0       0       0       0       0       0       0       
      +0       0       0       0       0
  4380 ;;      Temps:          2       0       0       0       0       0       0       0       0       0       0       0       
      +0       0       0       0       0
  4381 ;;      Totals:         2       0       0       0       0       0       0       0       0       0       0       0       
      +0       0       0       0       0
  4382 ;;Total ram usage:        2 bytes
  4383 ;; Hardware stack levels used: 1
  4384 ;; Hardware stack levels required when called: 3
  4385 ;; This function calls:
  4386 ;;		NULL
  4387 ;;		_I2C_CallbackReturnReset
  4388 ;;		_I2C_CallbackReturnStop
  4389 ;;		_I2C_DO_SEND_RESTART
  4390 ;;		_I2C_DO_SEND_STOP
  4391 ;;		_I2C_MasterSetIrq
  4392 ;;		_rd1RegCompleteHandler
  4393 ;;		_rd2RegCompleteHandler
  4394 ;;		_rdBlkRegCompleteHandler
  4395 ;;		_wr1RegCompleteHandler
  4396 ;;		_wr2RegCompleteHandler
  4397 ;; This function is called by:
  4398 ;;		_I2C_MasterFsm
  4399 ;; This function uses a non-reentrant model
  4400 ;;
  4401                           
  4402                           	psect	text53
  4403   0013A2                     __ptext53:
  4404                           	callstack 0
  4405   0013A2                     _I2C_DO_TX_EMPTY:
  4406                           	callstack 19
  4407   0013A2                     
  4408                           ;mcc_generated_files/i2c_master.c: 413:     I2C_Status.bufferFree = 1;
  4409   0013A2  0100               	movlb	0	; () banked
  4410   0013A4  8783               	bsf	(_I2C_Status+35)& (0+255),3,b
  4411                           
  4412                           ;mcc_generated_files/i2c_master.c: 414:     switch(I2C_Status.callbackTable[I2C_DATA_COM
      +                          PLETE](I2C_Status.callbackPayload[I2C_DATA_COMPLETE]))
  4413   0013A6  EFE2  F009         	goto	i2l2725
  4414   0013AA                     i2l2709:
  4415                           
  4416                           ;mcc_generated_files/i2c_master.c: 418:             return I2C_DO_SEND_RESTART();
  4417   0013AA  EC9C  F00D         	call	_I2C_DO_SEND_RESTART	;wreg free
  4418   0013AE  EF0E  F00A         	goto	i2l379
  4419   0013B2                     i2l2713:
  4420                           
  4421                           ;mcc_generated_files/i2c_master.c: 420:             I2C_MasterSetIrq();
  4422   0013B2  ECC1  F00D         	call	_I2C_MasterSetIrq	;wreg free
  4423   0013B6                     
  4424                           ;mcc_generated_files/i2c_master.c: 421:             return I2C_TX;
  4425   0013B6  0E03               	movlw	3
  4426   0013B8  EF0E  F00A         	goto	i2l379
  4427   0013BC                     i2l2719:
  4428                           
  4429                           ;mcc_generated_files/i2c_master.c: 424:             return I2C_DO_SEND_STOP();
  4430   0013BC  EC98  F00D         	call	_I2C_DO_SEND_STOP	;wreg free
  4431   0013C0  EF0E  F00A         	goto	i2l379
  4432   0013C4                     i2l2725:
  4433                           
  4434                           ; BSR set to: 0
  4435   0013C4  C06C  F00A         	movff	_I2C_Status+12,I2C_CallbackReturnReset@funPtr
  4436   0013C8  C06D  F00B         	movff	_I2C_Status+13,I2C_CallbackReturnReset@funPtr+1
  4437   0013CC  D802               	call	i2u77_48
  4438   0013CE  EFF2  F009         	goto	i2u77_49
  4439   0013D2                     i2u77_48:
  4440   0013D2  0005               	push	
  4441   0013D4  6EFA               	movwf	pclath,c
  4442   0013D6  5160               	movf	_I2C_Status& (0+255),w,b
  4443   0013D8  6EFD               	movwf	tosl,c
  4444   0013DA  5161               	movf	(_I2C_Status+1)& (0+255),w,b
  4445   0013DC  6EFE               	movwf	tosh,c
  4446   0013DE  6AFF               	clrf	tosu,c
  4447   0013E0  50FA               	movf	pclath,w,c
  4448   0013E2  0012               	return		;indir
  4449   0013E4                     i2u77_49:
  4450   0013E4  6E0C               	movwf	??_I2C_DO_TX_EMPTY^0,c
  4451   0013E6  6A0D               	clrf	(??_I2C_DO_TX_EMPTY+1)^0,c
  4452                           
  4453                           ; Switch on 2 bytes has been partitioned into a top level switch of size 1, and 1 sub-sw
      +                          itches
  4454                           ; Switch size 1, requested type "simple"
  4455                           ; Number of cases is 1, Range of values is 0 to 0
  4456                           ; switch strategies available:
  4457                           ; Name         Instructions Cycles
  4458                           ; simple_byte            4     3 (average)
  4459                           ;	Chosen strategy is simple_byte
  4460   0013E8  500D               	movf	(??_I2C_DO_TX_EMPTY+1)^0,w,c
  4461   0013EA  0A00               	xorlw	0	; case 0
  4462   0013EC  B4D8               	btfsc	status,2,c
  4463   0013EE  EFFB  F009         	goto	i2l3253
  4464   0013F2  EFDE  F009         	goto	i2l2719
  4465   0013F6                     i2l3253:
  4466                           
  4467                           ; Switch size 1, requested type "simple"
  4468                           ; Number of cases is 4, Range of values is 1 to 4
  4469                           ; switch strategies available:
  4470                           ; Name         Instructions Cycles
  4471                           ; simple_byte           13     7 (average)
  4472                           ;	Chosen strategy is simple_byte
  4473   0013F6  500C               	movf	??_I2C_DO_TX_EMPTY^0,w,c
  4474   0013F8  0A01               	xorlw	1	; case 1
  4475   0013FA  B4D8               	btfsc	status,2,c
  4476   0013FC  EFDE  F009         	goto	i2l2719
  4477   001400  0A03               	xorlw	3	; case 2
  4478   001402  B4D8               	btfsc	status,2,c
  4479   001404  EFD5  F009         	goto	i2l2709
  4480   001408  0A01               	xorlw	1	; case 3
  4481   00140A  B4D8               	btfsc	status,2,c
  4482   00140C  EFD5  F009         	goto	i2l2709
  4483   001410  0A07               	xorlw	7	; case 4
  4484   001412  B4D8               	btfsc	status,2,c
  4485   001414  EFD9  F009         	goto	i2l2713
  4486   001418  EFDE  F009         	goto	i2l2719
  4487   00141C                     i2l379:
  4488   00141C  0012               	return		;funcret
  4489   00141E                     __end_of_I2C_DO_TX_EMPTY:
  4490                           	callstack 0
  4491                           
  4492 ;; *************** function _I2C_MasterSetIrq *****************
  4493 ;; Defined at:
  4494 ;;		line 647 in file "mcc_generated_files/i2c_master.c"
  4495 ;; Parameters:    Size  Location     Type
  4496 ;;		None
  4497 ;; Auto vars:     Size  Location     Type
  4498 ;;		None
  4499 ;; Return value:  Size  Location     Type
  4500 ;;                  1    wreg      void 
  4501 ;; Registers used:
  4502 ;;		None
  4503 ;; Tracked objects:
  4504 ;;		On entry : 0/0
  4505 ;;		On exit  : 0/0
  4506 ;;		Unchanged: 0/0
  4507 ;; Data sizes:     COMRAM   BANK0   BANK1   BANK2   BANK3   BANK4   BANK5   BANK6   BANK7   BANK8   BANK9  BANK10  BANK1
      +1  BANK12  BANK13  BANK14  BANK15
  4508 ;;      Params:         0       0       0       0       0       0       0       0       0       0       0       0       
      +0       0       0       0       0
  4509 ;;      Locals:         0       0       0       0       0       0       0       0       0       0       0       0       
      +0       0       0       0       0
  4510 ;;      Temps:          0       0       0       0       0       0       0       0       0       0       0       0       
      +0       0       0       0       0
  4511 ;;      Totals:         0       0       0       0       0       0       0       0       0       0       0       0       
      +0       0       0       0       0
  4512 ;;Total ram usage:        0 bytes
  4513 ;; Hardware stack levels used: 1
  4514 ;; This function calls:
  4515 ;;		Nothing
  4516 ;; This function is called by:
  4517 ;;		_I2C_DO_TX_EMPTY
  4518 ;; This function uses a non-reentrant model
  4519 ;;
  4520                           
  4521                           	psect	text54
  4522   001B82                     __ptext54:
  4523                           	callstack 0
  4524   001B82                     _I2C_MasterSetIrq:
  4525                           	callstack 21
  4526   001B82                     
  4527                           ;mcc_generated_files/i2c_master.c: 649:     PIR1bits.SSPIF = 1;
  4528   001B82  869E               	bsf	158,3,c	;volatile
  4529   001B84  0012               	return		;funcret
  4530   001B86                     __end_of_I2C_MasterSetIrq:
  4531                           	callstack 0
  4532                           
  4533 ;; *************** function _I2C_MasterIsNack *****************
  4534 ;; Defined at:
  4535 ;;		line 599 in file "mcc_generated_files/i2c_master.c"
  4536 ;; Parameters:    Size  Location     Type
  4537 ;;		None
  4538 ;; Auto vars:     Size  Location     Type
  4539 ;;		None
  4540 ;; Return value:  Size  Location     Type
  4541 ;;                  1    wreg      _Bool 
  4542 ;; Registers used:
  4543 ;;		wreg
  4544 ;; Tracked objects:
  4545 ;;		On entry : 0/0
  4546 ;;		On exit  : 0/0
  4547 ;;		Unchanged: 0/0
  4548 ;; Data sizes:     COMRAM   BANK0   BANK1   BANK2   BANK3   BANK4   BANK5   BANK6   BANK7   BANK8   BANK9  BANK10  BANK1
      +1  BANK12  BANK13  BANK14  BANK15
  4549 ;;      Params:         0       0       0       0       0       0       0       0       0       0       0       0       
      +0       0       0       0       0
  4550 ;;      Locals:         0       0       0       0       0       0       0       0       0       0       0       0       
      +0       0       0       0       0
  4551 ;;      Temps:          0       0       0       0       0       0       0       0       0       0       0       0       
      +0       0       0       0       0
  4552 ;;      Totals:         0       0       0       0       0       0       0       0       0       0       0       0       
      +0       0       0       0       0
  4553 ;;Total ram usage:        0 bytes
  4554 ;; Hardware stack levels used: 1
  4555 ;; This function calls:
  4556 ;;		Nothing
  4557 ;; This function is called by:
  4558 ;;		_I2C_MasterFsm
  4559 ;;		_I2C_DO_TX
  4560 ;; This function uses a non-reentrant model
  4561 ;;
  4562                           
  4563                           	psect	text55
  4564   001A48                     __ptext55:
  4565                           	callstack 0
  4566   001A48                     _I2C_MasterIsNack:
  4567                           	callstack 22
  4568   001A48                     
  4569                           ;mcc_generated_files/i2c_master.c: 601:     return SSPCON2bits.ACKSTAT;
  4570   001A48  BCC5               	btfsc	197,6,c	;volatile
  4571   001A4A  EF29  F00D         	goto	i2u68_41
  4572   001A4E  EF2C  F00D         	goto	i2u68_40
  4573   001A52                     i2u68_41:
  4574   001A52  0E01               	movlw	1
  4575   001A54  EF2D  F00D         	goto	i2u68_46
  4576   001A58                     i2u68_40:
  4577   001A58  0E00               	movlw	0
  4578   001A5A                     i2u68_46:
  4579   001A5A  0012               	return		;funcret
  4580   001A5C                     __end_of_I2C_MasterIsNack:
  4581                           	callstack 0
  4582                           
  4583 ;; *************** function _I2C_MasterSendTxData *****************
  4584 ;; Defined at:
  4585 ;;		line 569 in file "mcc_generated_files/i2c_master.c"
  4586 ;; Parameters:    Size  Location     Type
  4587 ;;  data            1    wreg     unsigned char 
  4588 ;; Auto vars:     Size  Location     Type
  4589 ;;  data            1    0[COMRAM] unsigned char 
  4590 ;; Return value:  Size  Location     Type
  4591 ;;                  1    wreg      void 
  4592 ;; Registers used:
  4593 ;;		wreg
  4594 ;; Tracked objects:
  4595 ;;		On entry : 0/0
  4596 ;;		On exit  : 0/0
  4597 ;;		Unchanged: 0/0
  4598 ;; Data sizes:     COMRAM   BANK0   BANK1   BANK2   BANK3   BANK4   BANK5   BANK6   BANK7   BANK8   BANK9  BANK10  BANK1
      +1  BANK12  BANK13  BANK14  BANK15
  4599 ;;      Params:         0       0       0       0       0       0       0       0       0       0       0       0       
      +0       0       0       0       0
  4600 ;;      Locals:         1       0       0       0       0       0       0       0       0       0       0       0       
      +0       0       0       0       0
  4601 ;;      Temps:          0       0       0       0       0       0       0       0       0       0       0       0       
      +0       0       0       0       0
  4602 ;;      Totals:         1       0       0       0       0       0       0       0       0       0       0       0       
      +0       0       0       0       0
  4603 ;;Total ram usage:        1 bytes
  4604 ;; Hardware stack levels used: 1
  4605 ;; This function calls:
  4606 ;;		Nothing
  4607 ;; This function is called by:
  4608 ;;		_I2C_DO_SEND_ADR_READ
  4609 ;;		_I2C_DO_SEND_ADR_WRITE
  4610 ;;		_I2C_DO_TX
  4611 ;; This function uses a non-reentrant model
  4612 ;;
  4613                           
  4614                           	psect	text56
  4615   001B50                     __ptext56:
  4616                           	callstack 0
  4617   001B50                     _I2C_MasterSendTxData:
  4618                           	callstack 21
  4619                           
  4620                           ;incstack = 0
  4621                           ;I2C_MasterSendTxData@data stored from wreg
  4622   001B50  6E01               	movwf	I2C_MasterSendTxData@data^0,c
  4623   001B52                     
  4624                           ;mcc_generated_files/i2c_master.c: 569: static __attribute__((inline)) void I2C_MasterSe
      +                          ndTxData(uint8_t data);mcc_generated_files/i2c_master.c: 570: {;mcc_generated_files/i2c_
      +                          master.c: 571:     SSPBUF = data;
  4625   001B52  C001  FFC9         	movff	I2C_MasterSendTxData@data,4041	;volatile
  4626   001B56  0012               	return		;funcret
  4627   001B58                     __end_of_I2C_MasterSendTxData:
  4628                           	callstack 0
  4629                           
  4630 ;; *************** function _I2C_MasterSendAck *****************
  4631 ;; Defined at:
  4632 ;;		line 604 in file "mcc_generated_files/i2c_master.c"
  4633 ;; Parameters:    Size  Location     Type
  4634 ;;		None
  4635 ;; Auto vars:     Size  Location     Type
  4636 ;;		None
  4637 ;; Return value:  Size  Location     Type
  4638 ;;                  1    wreg      void 
  4639 ;; Registers used:
  4640 ;;		None
  4641 ;; Tracked objects:
  4642 ;;		On entry : 0/0
  4643 ;;		On exit  : 0/0
  4644 ;;		Unchanged: 0/0
  4645 ;; Data sizes:     COMRAM   BANK0   BANK1   BANK2   BANK3   BANK4   BANK5   BANK6   BANK7   BANK8   BANK9  BANK10  BANK1
      +1  BANK12  BANK13  BANK14  BANK15
  4646 ;;      Params:         0       0       0       0       0       0       0       0       0       0       0       0       
      +0       0       0       0       0
  4647 ;;      Locals:         0       0       0       0       0       0       0       0       0       0       0       0       
      +0       0       0       0       0
  4648 ;;      Temps:          0       0       0       0       0       0       0       0       0       0       0       0       
      +0       0       0       0       0
  4649 ;;      Totals:         0       0       0       0       0       0       0       0       0       0       0       0       
      +0       0       0       0       0
  4650 ;;Total ram usage:        0 bytes
  4651 ;; Hardware stack levels used: 1
  4652 ;; This function calls:
  4653 ;;		Nothing
  4654 ;; This function is called by:
  4655 ;;		_I2C_DO_RX
  4656 ;;		_I2C_DO_RX_ACK
  4657 ;; This function uses a non-reentrant model
  4658 ;;
  4659                           
  4660                           	psect	text57
  4661   001B5E                     __ptext57:
  4662                           	callstack 0
  4663   001B5E                     _I2C_MasterSendAck:
  4664                           	callstack 21
  4665   001B5E                     
  4666                           ;mcc_generated_files/i2c_master.c: 606:     SSPCON2bits.ACKDT = 0;
  4667   001B5E  9AC5               	bcf	197,5,c	;volatile
  4668                           
  4669                           ;mcc_generated_files/i2c_master.c: 607:     SSPCON2bits.ACKEN = 1;
  4670   001B60  88C5               	bsf	197,4,c	;volatile
  4671   001B62  0012               	return		;funcret
  4672   001B64                     __end_of_I2C_MasterSendAck:
  4673                           	callstack 0
  4674                           
  4675 ;; *************** function _I2C_MasterGetRxData *****************
  4676 ;; Defined at:
  4677 ;;		line 564 in file "mcc_generated_files/i2c_master.c"
  4678 ;; Parameters:    Size  Location     Type
  4679 ;;		None
  4680 ;; Auto vars:     Size  Location     Type
  4681 ;;		None
  4682 ;; Return value:  Size  Location     Type
  4683 ;;                  1    wreg      unsigned char 
  4684 ;; Registers used:
  4685 ;;		wreg, status,2
  4686 ;; Tracked objects:
  4687 ;;		On entry : 0/0
  4688 ;;		On exit  : 0/0
  4689 ;;		Unchanged: 0/0
  4690 ;; Data sizes:     COMRAM   BANK0   BANK1   BANK2   BANK3   BANK4   BANK5   BANK6   BANK7   BANK8   BANK9  BANK10  BANK1
      +1  BANK12  BANK13  BANK14  BANK15
  4691 ;;      Params:         0       0       0       0       0       0       0       0       0       0       0       0       
      +0       0       0       0       0
  4692 ;;      Locals:         0       0       0       0       0       0       0       0       0       0       0       0       
      +0       0       0       0       0
  4693 ;;      Temps:          0       0       0       0       0       0       0       0       0       0       0       0       
      +0       0       0       0       0
  4694 ;;      Totals:         0       0       0       0       0       0       0       0       0       0       0       0       
      +0       0       0       0       0
  4695 ;;Total ram usage:        0 bytes
  4696 ;; Hardware stack levels used: 1
  4697 ;; This function calls:
  4698 ;;		Nothing
  4699 ;; This function is called by:
  4700 ;;		_I2C_DO_RX
  4701 ;; This function uses a non-reentrant model
  4702 ;;
  4703                           
  4704                           	psect	text58
  4705   001B86                     __ptext58:
  4706                           	callstack 0
  4707   001B86                     _I2C_MasterGetRxData:
  4708                           	callstack 21
  4709   001B86                     
  4710                           ;mcc_generated_files/i2c_master.c: 566:     return SSPBUF;
  4711   001B86  50C9               	movf	201,w,c	;volatile
  4712   001B88  0012               	return		;funcret
  4713   001B8A                     __end_of_I2C_MasterGetRxData:
  4714                           	callstack 0
  4715                           
  4716 ;; *************** function _I2C_MasterSendNack *****************
  4717 ;; Defined at:
  4718 ;;		line 610 in file "mcc_generated_files/i2c_master.c"
  4719 ;; Parameters:    Size  Location     Type
  4720 ;;		None
  4721 ;; Auto vars:     Size  Location     Type
  4722 ;;		None
  4723 ;; Return value:  Size  Location     Type
  4724 ;;                  1    wreg      void 
  4725 ;; Registers used:
  4726 ;;		None
  4727 ;; Tracked objects:
  4728 ;;		On entry : 0/0
  4729 ;;		On exit  : 0/0
  4730 ;;		Unchanged: 0/0
  4731 ;; Data sizes:     COMRAM   BANK0   BANK1   BANK2   BANK3   BANK4   BANK5   BANK6   BANK7   BANK8   BANK9  BANK10  BANK1
      +1  BANK12  BANK13  BANK14  BANK15
  4732 ;;      Params:         0       0       0       0       0       0       0       0       0       0       0       0       
      +0       0       0       0       0
  4733 ;;      Locals:         0       0       0       0       0       0       0       0       0       0       0       0       
      +0       0       0       0       0
  4734 ;;      Temps:          0       0       0       0       0       0       0       0       0       0       0       0       
      +0       0       0       0       0
  4735 ;;      Totals:         0       0       0       0       0       0       0       0       0       0       0       0       
      +0       0       0       0       0
  4736 ;;Total ram usage:        0 bytes
  4737 ;; Hardware stack levels used: 1
  4738 ;; This function calls:
  4739 ;;		Nothing
  4740 ;; This function is called by:
  4741 ;;		_I2C_DO_RX_NACK_STOP
  4742 ;;		_I2C_DO_RX_NACK_RESTART
  4743 ;; This function uses a non-reentrant model
  4744 ;;
  4745                           
  4746                           	psect	text59
  4747   001B64                     __ptext59:
  4748                           	callstack 0
  4749   001B64                     _I2C_MasterSendNack:
  4750                           	callstack 21
  4751   001B64                     
  4752                           ;mcc_generated_files/i2c_master.c: 612:     SSPCON2bits.ACKDT = 1;
  4753   001B64  8AC5               	bsf	197,5,c	;volatile
  4754                           
  4755                           ;mcc_generated_files/i2c_master.c: 613:     SSPCON2bits.ACKEN = 1;
  4756   001B66  88C5               	bsf	197,4,c	;volatile
  4757   001B68  0012               	return		;funcret
  4758   001B6A                     __end_of_I2C_MasterSendNack:
  4759                           	callstack 0
  4760                           
  4761 ;; *************** function _I2C_MasterStartRx *****************
  4762 ;; Defined at:
  4763 ;;		line 584 in file "mcc_generated_files/i2c_master.c"
  4764 ;; Parameters:    Size  Location     Type
  4765 ;;		None
  4766 ;; Auto vars:     Size  Location     Type
  4767 ;;		None
  4768 ;; Return value:  Size  Location     Type
  4769 ;;                  1    wreg      void 
  4770 ;; Registers used:
  4771 ;;		None
  4772 ;; Tracked objects:
  4773 ;;		On entry : 0/0
  4774 ;;		On exit  : 0/0
  4775 ;;		Unchanged: 0/0
  4776 ;; Data sizes:     COMRAM   BANK0   BANK1   BANK2   BANK3   BANK4   BANK5   BANK6   BANK7   BANK8   BANK9  BANK10  BANK1
      +1  BANK12  BANK13  BANK14  BANK15
  4777 ;;      Params:         0       0       0       0       0       0       0       0       0       0       0       0       
      +0       0       0       0       0
  4778 ;;      Locals:         0       0       0       0       0       0       0       0       0       0       0       0       
      +0       0       0       0       0
  4779 ;;      Temps:          0       0       0       0       0       0       0       0       0       0       0       0       
      +0       0       0       0       0
  4780 ;;      Totals:         0       0       0       0       0       0       0       0       0       0       0       0       
      +0       0       0       0       0
  4781 ;;Total ram usage:        0 bytes
  4782 ;; Hardware stack levels used: 1
  4783 ;; This function calls:
  4784 ;;		Nothing
  4785 ;; This function is called by:
  4786 ;;		_I2C_DO_RCEN
  4787 ;; This function uses a non-reentrant model
  4788 ;;
  4789                           
  4790                           	psect	text60
  4791   001B8A                     __ptext60:
  4792                           	callstack 0
  4793   001B8A                     _I2C_MasterStartRx:
  4794                           	callstack 21
  4795   001B8A                     
  4796                           ;mcc_generated_files/i2c_master.c: 586:     SSPCON2bits.RCEN = 1;
  4797   001B8A  86C5               	bsf	197,3,c	;volatile
  4798   001B8C  0012               	return		;funcret
  4799   001B8E                     __end_of_I2C_MasterStartRx:
  4800                           	callstack 0
  4801                           
  4802 ;; *************** function _I2C_CallbackReturnReset *****************
  4803 ;; Defined at:
  4804 ;;		line 526 in file "mcc_generated_files/i2c_master.c"
  4805 ;; Parameters:    Size  Location     Type
  4806 ;;  funPtr          2    9[COMRAM] PTR void 
  4807 ;;		 -> I2C_ReadDataBlock@bufferBlock(4), I2C_Write2ByteRegister@data(2), I2C_Write1ByteRegister@data(1), I2C_Read2ByteR
      +egister@returnValue(2), 
  4808 ;;		 -> NULL(0), I2C_Read1ByteRegister@returnValue(1), 
  4809 ;; Auto vars:     Size  Location     Type
  4810 ;;		None
  4811 ;; Return value:  Size  Location     Type
  4812 ;;                  1    wreg      enum E363
  4813 ;; Registers used:
  4814 ;;		wreg
  4815 ;; Tracked objects:
  4816 ;;		On entry : 0/0
  4817 ;;		On exit  : 0/0
  4818 ;;		Unchanged: 0/0
  4819 ;; Data sizes:     COMRAM   BANK0   BANK1   BANK2   BANK3   BANK4   BANK5   BANK6   BANK7   BANK8   BANK9  BANK10  BANK1
      +1  BANK12  BANK13  BANK14  BANK15
  4820 ;;      Params:         2       0       0       0       0       0       0       0       0       0       0       0       
      +0       0       0       0       0
  4821 ;;      Locals:         0       0       0       0       0       0       0       0       0       0       0       0       
      +0       0       0       0       0
  4822 ;;      Temps:          0       0       0       0       0       0       0       0       0       0       0       0       
      +0       0       0       0       0
  4823 ;;      Totals:         2       0       0       0       0       0       0       0       0       0       0       0       
      +0       0       0       0       0
  4824 ;;Total ram usage:        2 bytes
  4825 ;; Hardware stack levels used: 1
  4826 ;; This function calls:
  4827 ;;		Nothing
  4828 ;; This function is called by:
  4829 ;;		_I2C_Open
  4830 ;;		_I2C_DO_TX
  4831 ;;		_I2C_DO_RX
  4832 ;;		_I2C_DO_TX_EMPTY
  4833 ;;		_I2C_DO_ADDRESS_NACK
  4834 ;;		_I2C_DO_RX_EMPTY
  4835 ;; This function uses a non-reentrant model
  4836 ;;
  4837                           
  4838                           	psect	text61
  4839   001B8E                     __ptext61:
  4840                           	callstack 0
  4841   001B8E                     _I2C_CallbackReturnReset:
  4842                           	callstack 21
  4843   001B8E                     
  4844                           ;mcc_generated_files/i2c_master.c: 526: i2c_operations_t I2C_CallbackReturnReset(void *f
      +                          unPtr);mcc_generated_files/i2c_master.c: 527: {;mcc_generated_files/i2c_master.c: 528:  
      +                             return I2C_RESET_LINK;
  4845   001B8E  0E05               	movlw	5
  4846   001B90  0012               	return		;funcret
  4847   001B92                     __end_of_I2C_CallbackReturnReset:
  4848                           	callstack 0
  4849                           
  4850 ;; *************** function _I2C_CallbackReturnStop *****************
  4851 ;; Defined at:
  4852 ;;		line 521 in file "mcc_generated_files/i2c_master.c"
  4853 ;; Parameters:    Size  Location     Type
  4854 ;;  funPtr          2    9[COMRAM] PTR void 
  4855 ;;		 -> I2C_ReadDataBlock@bufferBlock(4), I2C_Write2ByteRegister@data(2), I2C_Write1ByteRegister@data(1), I2C_Read2ByteR
      +egister@returnValue(2), 
  4856 ;;		 -> NULL(0), I2C_Read1ByteRegister@returnValue(1), 
  4857 ;; Auto vars:     Size  Location     Type
  4858 ;;		None
  4859 ;; Return value:  Size  Location     Type
  4860 ;;                  1    wreg      enum E363
  4861 ;; Registers used:
  4862 ;;		wreg
  4863 ;; Tracked objects:
  4864 ;;		On entry : 0/0
  4865 ;;		On exit  : 0/0
  4866 ;;		Unchanged: 0/0
  4867 ;; Data sizes:     COMRAM   BANK0   BANK1   BANK2   BANK3   BANK4   BANK5   BANK6   BANK7   BANK8   BANK9  BANK10  BANK1
      +1  BANK12  BANK13  BANK14  BANK15
  4868 ;;      Params:         2       0       0       0       0       0       0       0       0       0       0       0       
      +0       0       0       0       0
  4869 ;;      Locals:         0       0       0       0       0       0       0       0       0       0       0       0       
      +0       0       0       0       0
  4870 ;;      Temps:          0       0       0       0       0       0       0       0       0       0       0       0       
      +0       0       0       0       0
  4871 ;;      Totals:         2       0       0       0       0       0       0       0       0       0       0       0       
      +0       0       0       0       0
  4872 ;;Total ram usage:        2 bytes
  4873 ;; Hardware stack levels used: 1
  4874 ;; This function calls:
  4875 ;;		Nothing
  4876 ;; This function is called by:
  4877 ;;		_I2C_Open
  4878 ;;		_I2C_SetCallback
  4879 ;;		i2_I2C_SetCallback
  4880 ;;		_I2C_DO_TX
  4881 ;;		_I2C_DO_RX
  4882 ;;		_I2C_DO_TX_EMPTY
  4883 ;;		_I2C_DO_ADDRESS_NACK
  4884 ;;		_I2C_DO_RX_EMPTY
  4885 ;; This function uses a non-reentrant model
  4886 ;;
  4887                           
  4888                           	psect	text62
  4889   001B92                     __ptext62:
  4890                           	callstack 0
  4891   001B92                     _I2C_CallbackReturnStop:
  4892                           	callstack 21
  4893   001B92                     
  4894                           ;mcc_generated_files/i2c_master.c: 521: i2c_operations_t I2C_CallbackReturnStop(void *fu
      +                          nPtr);mcc_generated_files/i2c_master.c: 522: {;mcc_generated_files/i2c_master.c: 523:   
      +                            return I2C_STOP;
  4895   001B92  0E01               	movlw	1
  4896   001B94  0012               	return		;funcret
  4897   001B96                     __end_of_I2C_CallbackReturnStop:
  4898                           	callstack 0
  4899                           
  4900 ;; *************** function _rdBlkRegCompleteHandler *****************
  4901 ;; Defined at:
  4902 ;;		line 170 in file "mcc_generated_files/examples/i2c_master_example.c"
  4903 ;; Parameters:    Size  Location     Type
  4904 ;;  ptr             2    9[COMRAM] PTR void 
  4905 ;;		 -> I2C_ReadDataBlock@bufferBlock(4), I2C_Write2ByteRegister@data(2), I2C_Write1ByteRegister@data(1), I2C_Read2ByteR
      +egister@returnValue(2), 
  4906 ;;		 -> NULL(0), I2C_Read1ByteRegister@returnValue(1), 
  4907 ;; Auto vars:     Size  Location     Type
  4908 ;;		None
  4909 ;; Return value:  Size  Location     Type
  4910 ;;                  1    wreg      enum E363
  4911 ;; Registers used:
  4912 ;;		wreg, fsr2l, fsr2h, status,2, status,0, prodl, prodh, cstack
  4913 ;; Tracked objects:
  4914 ;;		On entry : 0/0
  4915 ;;		On exit  : 0/0
  4916 ;;		Unchanged: 0/0
  4917 ;; Data sizes:     COMRAM   BANK0   BANK1   BANK2   BANK3   BANK4   BANK5   BANK6   BANK7   BANK8   BANK9  BANK10  BANK1
      +1  BANK12  BANK13  BANK14  BANK15
  4918 ;;      Params:         2       0       0       0       0       0       0       0       0       0       0       0       
      +0       0       0       0       0
  4919 ;;      Locals:         0       0       0       0       0       0       0       0       0       0       0       0       
      +0       0       0       0       0
  4920 ;;      Temps:          0       0       0       0       0       0       0       0       0       0       0       0       
      +0       0       0       0       0
  4921 ;;      Totals:         2       0       0       0       0       0       0       0       0       0       0       0       
      +0       0       0       0       0
  4922 ;;Total ram usage:        2 bytes
  4923 ;; Hardware stack levels used: 1
  4924 ;; Hardware stack levels required when called: 2
  4925 ;; This function calls:
  4926 ;;		i2_I2C_SetBuffer
  4927 ;;		i2_I2C_SetDataCompleteCallback
  4928 ;; This function is called by:
  4929 ;;		_I2C_ReadDataBlock
  4930 ;;		_I2C_DO_TX
  4931 ;;		_I2C_DO_RX
  4932 ;;		_I2C_DO_TX_EMPTY
  4933 ;;		_I2C_DO_ADDRESS_NACK
  4934 ;;		_I2C_DO_RX_EMPTY
  4935 ;; This function uses a non-reentrant model
  4936 ;;
  4937                           
  4938                           	psect	text63
  4939   0017AA                     __ptext63:
  4940                           	callstack 0
  4941   0017AA                     _rdBlkRegCompleteHandler:
  4942                           	callstack 19
  4943   0017AA                     
  4944                           ;mcc_generated_files/examples/i2c_master_example.c: 170: static i2c_operations_t rdBlkRe
      +                          gCompleteHandler(void *ptr);mcc_generated_files/examples/i2c_master_example.c: 171: {;mc
      +                          c_generated_files/examples/i2c_master_example.c: 172:     I2C_SetBuffer(((i2c_buffer_t *
      +                          )ptr)->data,((i2c_buffer_t*)ptr)->len);
  4945   0017AA  EE20 F002          	lfsr	2,2
  4946   0017AE  500A               	movf	rdBlkRegCompleteHandler@ptr^0,w,c
  4947   0017B0  26D9               	addwf	fsr2l,f,c
  4948   0017B2  500B               	movf	(rdBlkRegCompleteHandler@ptr+1)^0,w,c
  4949   0017B4  22DA               	addwfc	fsr2h,f,c
  4950   0017B6  CFDE F001          	movff	postinc2,i2I2C_SetBuffer@buffer
  4951   0017BA  CFDD F002          	movff	postdec2,i2I2C_SetBuffer@buffer+1
  4952   0017BE  C00A  FFD9         	movff	rdBlkRegCompleteHandler@ptr,fsr2l
  4953   0017C2  C00B  FFDA         	movff	rdBlkRegCompleteHandler@ptr+1,fsr2h
  4954   0017C6  CFDE F003          	movff	postinc2,i2I2C_SetBuffer@bufferSize
  4955   0017CA  CFDD F004          	movff	postdec2,i2I2C_SetBuffer@bufferSize+1
  4956   0017CE  ECAC  F00C         	call	i2_I2C_SetBuffer	;wreg free
  4957   0017D2                     
  4958                           ;mcc_generated_files/examples/i2c_master_example.c: 173:     I2C_SetDataCompleteCallback
      +                          (((void*)0),((void*)0));
  4959   0017D2  0E00               	movlw	0
  4960   0017D4  6E06               	movwf	i2I2C_SetDataCompleteCallback@cb^0,c
  4961   0017D6  0E00               	movlw	0
  4962   0017D8  6E07               	movwf	(i2I2C_SetDataCompleteCallback@cb+1)^0,c
  4963   0017DA  0E00               	movlw	0
  4964   0017DC  6E08               	movwf	i2I2C_SetDataCompleteCallback@ptr^0,c
  4965   0017DE  0E00               	movlw	0
  4966   0017E0  6E09               	movwf	(i2I2C_SetDataCompleteCallback@ptr+1)^0,c
  4967   0017E2  ECF8  F00C         	call	i2_I2C_SetDataCompleteCallback	;wreg free
  4968   0017E6                     
  4969                           ;mcc_generated_files/examples/i2c_master_example.c: 174:     return I2C_RESTART_READ;
  4970   0017E6  0E02               	movlw	2
  4971   0017E8  0012               	return		;funcret
  4972   0017EA                     __end_of_rdBlkRegCompleteHandler:
  4973                           	callstack 0
  4974                           
  4975 ;; *************** function _wr1RegCompleteHandler *****************
  4976 ;; Defined at:
  4977 ;;		line 156 in file "mcc_generated_files/examples/i2c_master_example.c"
  4978 ;; Parameters:    Size  Location     Type
  4979 ;;  ptr             2    9[COMRAM] PTR void 
  4980 ;;		 -> I2C_ReadDataBlock@bufferBlock(4), I2C_Write2ByteRegister@data(2), I2C_Write1ByteRegister@data(1), I2C_Read2ByteR
      +egister@returnValue(2), 
  4981 ;;		 -> NULL(0), I2C_Read1ByteRegister@returnValue(1), 
  4982 ;; Auto vars:     Size  Location     Type
  4983 ;;		None
  4984 ;; Return value:  Size  Location     Type
  4985 ;;                  1    wreg      enum E363
  4986 ;; Registers used:
  4987 ;;		wreg, fsr2l, fsr2h, status,2, status,0, prodl, prodh, cstack
  4988 ;; Tracked objects:
  4989 ;;		On entry : 0/0
  4990 ;;		On exit  : 0/0
  4991 ;;		Unchanged: 0/0
  4992 ;; Data sizes:     COMRAM   BANK0   BANK1   BANK2   BANK3   BANK4   BANK5   BANK6   BANK7   BANK8   BANK9  BANK10  BANK1
      +1  BANK12  BANK13  BANK14  BANK15
  4993 ;;      Params:         2       0       0       0       0       0       0       0       0       0       0       0       
      +0       0       0       0       0
  4994 ;;      Locals:         0       0       0       0       0       0       0       0       0       0       0       0       
      +0       0       0       0       0
  4995 ;;      Temps:          0       0       0       0       0       0       0       0       0       0       0       0       
      +0       0       0       0       0
  4996 ;;      Totals:         2       0       0       0       0       0       0       0       0       0       0       0       
      +0       0       0       0       0
  4997 ;;Total ram usage:        2 bytes
  4998 ;; Hardware stack levels used: 1
  4999 ;; Hardware stack levels required when called: 2
  5000 ;; This function calls:
  5001 ;;		i2_I2C_SetBuffer
  5002 ;;		i2_I2C_SetDataCompleteCallback
  5003 ;; This function is called by:
  5004 ;;		_I2C_Write1ByteRegister
  5005 ;;		_I2C_DO_TX
  5006 ;;		_I2C_DO_RX
  5007 ;;		_I2C_DO_TX_EMPTY
  5008 ;;		_I2C_DO_ADDRESS_NACK
  5009 ;;		_I2C_DO_RX_EMPTY
  5010 ;; This function uses a non-reentrant model
  5011 ;;
  5012                           
  5013                           	psect	text64
  5014   001884                     __ptext64:
  5015                           	callstack 0
  5016   001884                     _wr1RegCompleteHandler:
  5017                           	callstack 19
  5018   001884                     
  5019                           ;mcc_generated_files/examples/i2c_master_example.c: 156: static i2c_operations_t wr1RegC
      +                          ompleteHandler(void *ptr);mcc_generated_files/examples/i2c_master_example.c: 157: {;mcc_
      +                          generated_files/examples/i2c_master_example.c: 158:     I2C_SetBuffer(ptr,1);
  5020   001884  C00A  F001         	movff	wr1RegCompleteHandler@ptr,i2I2C_SetBuffer@buffer
  5021   001888  C00B  F002         	movff	wr1RegCompleteHandler@ptr+1,i2I2C_SetBuffer@buffer+1
  5022   00188C  0E00               	movlw	0
  5023   00188E  6E04               	movwf	(i2I2C_SetBuffer@bufferSize+1)^0,c
  5024   001890  0E01               	movlw	1
  5025   001892  6E03               	movwf	i2I2C_SetBuffer@bufferSize^0,c
  5026   001894  ECAC  F00C         	call	i2_I2C_SetBuffer	;wreg free
  5027   001898                     
  5028                           ;mcc_generated_files/examples/i2c_master_example.c: 159:     I2C_SetDataCompleteCallback
      +                          (((void*)0),((void*)0));
  5029   001898  0E00               	movlw	0
  5030   00189A  6E06               	movwf	i2I2C_SetDataCompleteCallback@cb^0,c
  5031   00189C  0E00               	movlw	0
  5032   00189E  6E07               	movwf	(i2I2C_SetDataCompleteCallback@cb+1)^0,c
  5033   0018A0  0E00               	movlw	0
  5034   0018A2  6E08               	movwf	i2I2C_SetDataCompleteCallback@ptr^0,c
  5035   0018A4  0E00               	movlw	0
  5036   0018A6  6E09               	movwf	(i2I2C_SetDataCompleteCallback@ptr+1)^0,c
  5037   0018A8  ECF8  F00C         	call	i2_I2C_SetDataCompleteCallback	;wreg free
  5038   0018AC                     
  5039                           ;mcc_generated_files/examples/i2c_master_example.c: 160:     return I2C_CONTINUE;
  5040   0018AC  0E04               	movlw	4
  5041   0018AE  0012               	return		;funcret
  5042   0018B0                     __end_of_wr1RegCompleteHandler:
  5043                           	callstack 0
  5044                           
  5045 ;; *************** function _rd2RegCompleteHandler *****************
  5046 ;; Defined at:
  5047 ;;		line 149 in file "mcc_generated_files/examples/i2c_master_example.c"
  5048 ;; Parameters:    Size  Location     Type
  5049 ;;  ptr             2    9[COMRAM] PTR void 
  5050 ;;		 -> I2C_ReadDataBlock@bufferBlock(4), I2C_Write2ByteRegister@data(2), I2C_Write1ByteRegister@data(1), I2C_Read2ByteR
      +egister@returnValue(2), 
  5051 ;;		 -> NULL(0), I2C_Read1ByteRegister@returnValue(1), 
  5052 ;; Auto vars:     Size  Location     Type
  5053 ;;		None
  5054 ;; Return value:  Size  Location     Type
  5055 ;;                  1    wreg      enum E363
  5056 ;; Registers used:
  5057 ;;		wreg, fsr2l, fsr2h, status,2, status,0, prodl, prodh, cstack
  5058 ;; Tracked objects:
  5059 ;;		On entry : 0/0
  5060 ;;		On exit  : 0/0
  5061 ;;		Unchanged: 0/0
  5062 ;; Data sizes:     COMRAM   BANK0   BANK1   BANK2   BANK3   BANK4   BANK5   BANK6   BANK7   BANK8   BANK9  BANK10  BANK1
      +1  BANK12  BANK13  BANK14  BANK15
  5063 ;;      Params:         2       0       0       0       0       0       0       0       0       0       0       0       
      +0       0       0       0       0
  5064 ;;      Locals:         0       0       0       0       0       0       0       0       0       0       0       0       
      +0       0       0       0       0
  5065 ;;      Temps:          0       0       0       0       0       0       0       0       0       0       0       0       
      +0       0       0       0       0
  5066 ;;      Totals:         2       0       0       0       0       0       0       0       0       0       0       0       
      +0       0       0       0       0
  5067 ;;Total ram usage:        2 bytes
  5068 ;; Hardware stack levels used: 1
  5069 ;; Hardware stack levels required when called: 2
  5070 ;; This function calls:
  5071 ;;		i2_I2C_SetBuffer
  5072 ;;		i2_I2C_SetDataCompleteCallback
  5073 ;; This function is called by:
  5074 ;;		_I2C_Read2ByteRegister
  5075 ;;		_I2C_DO_TX
  5076 ;;		_I2C_DO_RX
  5077 ;;		_I2C_DO_TX_EMPTY
  5078 ;;		_I2C_DO_ADDRESS_NACK
  5079 ;;		_I2C_DO_RX_EMPTY
  5080 ;; This function uses a non-reentrant model
  5081 ;;
  5082                           
  5083                           	psect	text65
  5084   0018B0                     __ptext65:
  5085                           	callstack 0
  5086   0018B0                     _rd2RegCompleteHandler:
  5087                           	callstack 19
  5088   0018B0                     
  5089                           ;mcc_generated_files/examples/i2c_master_example.c: 149: static i2c_operations_t rd2RegC
      +                          ompleteHandler(void *ptr);mcc_generated_files/examples/i2c_master_example.c: 150: {;mcc_
      +                          generated_files/examples/i2c_master_example.c: 151:     I2C_SetBuffer(ptr,2);
  5090   0018B0  C00A  F001         	movff	rd2RegCompleteHandler@ptr,i2I2C_SetBuffer@buffer
  5091   0018B4  C00B  F002         	movff	rd2RegCompleteHandler@ptr+1,i2I2C_SetBuffer@buffer+1
  5092   0018B8  0E00               	movlw	0
  5093   0018BA  6E04               	movwf	(i2I2C_SetBuffer@bufferSize+1)^0,c
  5094   0018BC  0E02               	movlw	2
  5095   0018BE  6E03               	movwf	i2I2C_SetBuffer@bufferSize^0,c
  5096   0018C0  ECAC  F00C         	call	i2_I2C_SetBuffer	;wreg free
  5097   0018C4                     
  5098                           ;mcc_generated_files/examples/i2c_master_example.c: 152:     I2C_SetDataCompleteCallback
      +                          (((void*)0),((void*)0));
  5099   0018C4  0E00               	movlw	0
  5100   0018C6  6E06               	movwf	i2I2C_SetDataCompleteCallback@cb^0,c
  5101   0018C8  0E00               	movlw	0
  5102   0018CA  6E07               	movwf	(i2I2C_SetDataCompleteCallback@cb+1)^0,c
  5103   0018CC  0E00               	movlw	0
  5104   0018CE  6E08               	movwf	i2I2C_SetDataCompleteCallback@ptr^0,c
  5105   0018D0  0E00               	movlw	0
  5106   0018D2  6E09               	movwf	(i2I2C_SetDataCompleteCallback@ptr+1)^0,c
  5107   0018D4  ECF8  F00C         	call	i2_I2C_SetDataCompleteCallback	;wreg free
  5108   0018D8                     
  5109                           ;mcc_generated_files/examples/i2c_master_example.c: 153:     return I2C_RESTART_READ;
  5110   0018D8  0E02               	movlw	2
  5111   0018DA  0012               	return		;funcret
  5112   0018DC                     __end_of_rd2RegCompleteHandler:
  5113                           	callstack 0
  5114                           
  5115 ;; *************** function _rd1RegCompleteHandler *****************
  5116 ;; Defined at:
  5117 ;;		line 142 in file "mcc_generated_files/examples/i2c_master_example.c"
  5118 ;; Parameters:    Size  Location     Type
  5119 ;;  ptr             2    9[COMRAM] PTR void 
  5120 ;;		 -> I2C_ReadDataBlock@bufferBlock(4), I2C_Write2ByteRegister@data(2), I2C_Write1ByteRegister@data(1), I2C_Read2ByteR
      +egister@returnValue(2), 
  5121 ;;		 -> NULL(0), I2C_Read1ByteRegister@returnValue(1), 
  5122 ;; Auto vars:     Size  Location     Type
  5123 ;;		None
  5124 ;; Return value:  Size  Location     Type
  5125 ;;                  1    wreg      enum E363
  5126 ;; Registers used:
  5127 ;;		wreg, fsr2l, fsr2h, status,2, status,0, prodl, prodh, cstack
  5128 ;; Tracked objects:
  5129 ;;		On entry : 0/0
  5130 ;;		On exit  : 0/0
  5131 ;;		Unchanged: 0/0
  5132 ;; Data sizes:     COMRAM   BANK0   BANK1   BANK2   BANK3   BANK4   BANK5   BANK6   BANK7   BANK8   BANK9  BANK10  BANK1
      +1  BANK12  BANK13  BANK14  BANK15
  5133 ;;      Params:         2       0       0       0       0       0       0       0       0       0       0       0       
      +0       0       0       0       0
  5134 ;;      Locals:         0       0       0       0       0       0       0       0       0       0       0       0       
      +0       0       0       0       0
  5135 ;;      Temps:          0       0       0       0       0       0       0       0       0       0       0       0       
      +0       0       0       0       0
  5136 ;;      Totals:         2       0       0       0       0       0       0       0       0       0       0       0       
      +0       0       0       0       0
  5137 ;;Total ram usage:        2 bytes
  5138 ;; Hardware stack levels used: 1
  5139 ;; Hardware stack levels required when called: 2
  5140 ;; This function calls:
  5141 ;;		i2_I2C_SetBuffer
  5142 ;;		i2_I2C_SetDataCompleteCallback
  5143 ;; This function is called by:
  5144 ;;		_I2C_Read1ByteRegister
  5145 ;;		_I2C_DO_TX
  5146 ;;		_I2C_DO_RX
  5147 ;;		_I2C_DO_TX_EMPTY
  5148 ;;		_I2C_DO_ADDRESS_NACK
  5149 ;;		_I2C_DO_RX_EMPTY
  5150 ;; This function uses a non-reentrant model
  5151 ;;
  5152                           
  5153                           	psect	text66
  5154   0018DC                     __ptext66:
  5155                           	callstack 0
  5156   0018DC                     _rd1RegCompleteHandler:
  5157                           	callstack 19
  5158   0018DC                     
  5159                           ;mcc_generated_files/examples/i2c_master_example.c: 142: static i2c_operations_t rd1RegC
      +                          ompleteHandler(void *ptr);mcc_generated_files/examples/i2c_master_example.c: 143: {;mcc_
      +                          generated_files/examples/i2c_master_example.c: 144:     I2C_SetBuffer(ptr,1);
  5160   0018DC  C00A  F001         	movff	rd1RegCompleteHandler@ptr,i2I2C_SetBuffer@buffer
  5161   0018E0  C00B  F002         	movff	rd1RegCompleteHandler@ptr+1,i2I2C_SetBuffer@buffer+1
  5162   0018E4  0E00               	movlw	0
  5163   0018E6  6E04               	movwf	(i2I2C_SetBuffer@bufferSize+1)^0,c
  5164   0018E8  0E01               	movlw	1
  5165   0018EA  6E03               	movwf	i2I2C_SetBuffer@bufferSize^0,c
  5166   0018EC  ECAC  F00C         	call	i2_I2C_SetBuffer	;wreg free
  5167   0018F0                     
  5168                           ;mcc_generated_files/examples/i2c_master_example.c: 145:     I2C_SetDataCompleteCallback
      +                          (((void*)0),((void*)0));
  5169   0018F0  0E00               	movlw	0
  5170   0018F2  6E06               	movwf	i2I2C_SetDataCompleteCallback@cb^0,c
  5171   0018F4  0E00               	movlw	0
  5172   0018F6  6E07               	movwf	(i2I2C_SetDataCompleteCallback@cb+1)^0,c
  5173   0018F8  0E00               	movlw	0
  5174   0018FA  6E08               	movwf	i2I2C_SetDataCompleteCallback@ptr^0,c
  5175   0018FC  0E00               	movlw	0
  5176   0018FE  6E09               	movwf	(i2I2C_SetDataCompleteCallback@ptr+1)^0,c
  5177   001900  ECF8  F00C         	call	i2_I2C_SetDataCompleteCallback	;wreg free
  5178   001904                     
  5179                           ;mcc_generated_files/examples/i2c_master_example.c: 146:     return I2C_RESTART_READ;
  5180   001904  0E02               	movlw	2
  5181   001906  0012               	return		;funcret
  5182   001908                     __end_of_rd1RegCompleteHandler:
  5183                           	callstack 0
  5184                           
  5185 ;; *************** function _wr2RegCompleteHandler *****************
  5186 ;; Defined at:
  5187 ;;		line 163 in file "mcc_generated_files/examples/i2c_master_example.c"
  5188 ;; Parameters:    Size  Location     Type
  5189 ;;  ptr             2    9[COMRAM] PTR void 
  5190 ;;		 -> I2C_ReadDataBlock@bufferBlock(4), I2C_Write2ByteRegister@data(2), I2C_Write1ByteRegister@data(1), I2C_Read2ByteR
      +egister@returnValue(2), 
  5191 ;;		 -> NULL(0), I2C_Read1ByteRegister@returnValue(1), 
  5192 ;; Auto vars:     Size  Location     Type
  5193 ;;		None
  5194 ;; Return value:  Size  Location     Type
  5195 ;;                  1    wreg      enum E363
  5196 ;; Registers used:
  5197 ;;		wreg, fsr2l, fsr2h, status,2, status,0, prodl, prodh, cstack
  5198 ;; Tracked objects:
  5199 ;;		On entry : 0/0
  5200 ;;		On exit  : 0/0
  5201 ;;		Unchanged: 0/0
  5202 ;; Data sizes:     COMRAM   BANK0   BANK1   BANK2   BANK3   BANK4   BANK5   BANK6   BANK7   BANK8   BANK9  BANK10  BANK1
      +1  BANK12  BANK13  BANK14  BANK15
  5203 ;;      Params:         2       0       0       0       0       0       0       0       0       0       0       0       
      +0       0       0       0       0
  5204 ;;      Locals:         0       0       0       0       0       0       0       0       0       0       0       0       
      +0       0       0       0       0
  5205 ;;      Temps:          0       0       0       0       0       0       0       0       0       0       0       0       
      +0       0       0       0       0
  5206 ;;      Totals:         2       0       0       0       0       0       0       0       0       0       0       0       
      +0       0       0       0       0
  5207 ;;Total ram usage:        2 bytes
  5208 ;; Hardware stack levels used: 1
  5209 ;; Hardware stack levels required when called: 2
  5210 ;; This function calls:
  5211 ;;		i2_I2C_SetBuffer
  5212 ;;		i2_I2C_SetDataCompleteCallback
  5213 ;; This function is called by:
  5214 ;;		_I2C_Write2ByteRegister
  5215 ;;		_I2C_DO_TX
  5216 ;;		_I2C_DO_RX
  5217 ;;		_I2C_DO_TX_EMPTY
  5218 ;;		_I2C_DO_ADDRESS_NACK
  5219 ;;		_I2C_DO_RX_EMPTY
  5220 ;; This function uses a non-reentrant model
  5221 ;;
  5222                           
  5223                           	psect	text67
  5224   001908                     __ptext67:
  5225                           	callstack 0
  5226   001908                     _wr2RegCompleteHandler:
  5227                           	callstack 19
  5228   001908                     
  5229                           ;mcc_generated_files/examples/i2c_master_example.c: 163: static i2c_operations_t wr2RegC
      +                          ompleteHandler(void *ptr);mcc_generated_files/examples/i2c_master_example.c: 164: {;mcc_
      +                          generated_files/examples/i2c_master_example.c: 165:     I2C_SetBuffer(ptr,2);
  5230   001908  C00A  F001         	movff	wr2RegCompleteHandler@ptr,i2I2C_SetBuffer@buffer
  5231   00190C  C00B  F002         	movff	wr2RegCompleteHandler@ptr+1,i2I2C_SetBuffer@buffer+1
  5232   001910  0E00               	movlw	0
  5233   001912  6E04               	movwf	(i2I2C_SetBuffer@bufferSize+1)^0,c
  5234   001914  0E02               	movlw	2
  5235   001916  6E03               	movwf	i2I2C_SetBuffer@bufferSize^0,c
  5236   001918  ECAC  F00C         	call	i2_I2C_SetBuffer	;wreg free
  5237   00191C                     
  5238                           ;mcc_generated_files/examples/i2c_master_example.c: 166:     I2C_SetDataCompleteCallback
      +                          (((void*)0),((void*)0));
  5239   00191C  0E00               	movlw	0
  5240   00191E  6E06               	movwf	i2I2C_SetDataCompleteCallback@cb^0,c
  5241   001920  0E00               	movlw	0
  5242   001922  6E07               	movwf	(i2I2C_SetDataCompleteCallback@cb+1)^0,c
  5243   001924  0E00               	movlw	0
  5244   001926  6E08               	movwf	i2I2C_SetDataCompleteCallback@ptr^0,c
  5245   001928  0E00               	movlw	0
  5246   00192A  6E09               	movwf	(i2I2C_SetDataCompleteCallback@ptr+1)^0,c
  5247   00192C  ECF8  F00C         	call	i2_I2C_SetDataCompleteCallback	;wreg free
  5248   001930                     
  5249                           ;mcc_generated_files/examples/i2c_master_example.c: 167:     return I2C_CONTINUE;
  5250   001930  0E04               	movlw	4
  5251   001932  0012               	return		;funcret
  5252   001934                     __end_of_wr2RegCompleteHandler:
  5253                           	callstack 0
  5254                           
  5255 ;; *************** function i2_I2C_SetDataCompleteCallback *****************
  5256 ;; Defined at:
  5257 ;;		line 274 in file "mcc_generated_files/i2c_master.c"
  5258 ;; Parameters:    Size  Location     Type
  5259 ;;  cb              2    5[COMRAM] PTR FTN(PTR void ,)enum 
  5260 ;;		 -> NULL(1), rdBlkRegCompleteHandler(1), wr2RegCompleteHandler(1), wr1RegCompleteHandler(1), 
  5261 ;;		 -> rd2RegCompleteHandler(1), rd1RegCompleteHandler(1), 
  5262 ;;  ptr             2    7[COMRAM] PTR void 
  5263 ;;		 -> I2C_ReadDataBlock@bufferBlock(4), I2C_Write2ByteRegister@data(2), I2C_Write1ByteRegister@data(1), I2C_Read2ByteR
      +egister@returnValue(2), 
  5264 ;;		 -> NULL(0), I2C_Read1ByteRegister@returnValue(1), 
  5265 ;; Auto vars:     Size  Location     Type
  5266 ;;		None
  5267 ;; Return value:  Size  Location     Type
  5268 ;;                  1    wreg      void 
  5269 ;; Registers used:
  5270 ;;		wreg, fsr2l, fsr2h, status,2, status,0, prodl, prodh, cstack
  5271 ;; Tracked objects:
  5272 ;;		On entry : 0/0
  5273 ;;		On exit  : 0/0
  5274 ;;		Unchanged: 0/0
  5275 ;; Data sizes:     COMRAM   BANK0   BANK1   BANK2   BANK3   BANK4   BANK5   BANK6   BANK7   BANK8   BANK9  BANK10  BANK1
      +1  BANK12  BANK13  BANK14  BANK15
  5276 ;;      Params:         4       0       0       0       0       0       0       0       0       0       0       0       
      +0       0       0       0       0
  5277 ;;      Locals:         0       0       0       0       0       0       0       0       0       0       0       0       
      +0       0       0       0       0
  5278 ;;      Temps:          0       0       0       0       0       0       0       0       0       0       0       0       
      +0       0       0       0       0
  5279 ;;      Totals:         4       0       0       0       0       0       0       0       0       0       0       0       
      +0       0       0       0       0
  5280 ;;Total ram usage:        4 bytes
  5281 ;; Hardware stack levels used: 1
  5282 ;; Hardware stack levels required when called: 1
  5283 ;; This function calls:
  5284 ;;		i2_I2C_SetCallback
  5285 ;; This function is called by:
  5286 ;;		_rd1RegCompleteHandler
  5287 ;;		_rd2RegCompleteHandler
  5288 ;;		_wr1RegCompleteHandler
  5289 ;;		_wr2RegCompleteHandler
  5290 ;;		_rdBlkRegCompleteHandler
  5291 ;; This function uses a non-reentrant model
  5292 ;;
  5293                           
  5294                           	psect	text68
  5295   0019F0                     __ptext68:
  5296                           	callstack 0
  5297   0019F0                     i2_I2C_SetDataCompleteCallback:
  5298                           	callstack 19
  5299   0019F0                     
  5300                           ;mcc_generated_files/i2c_master.c: 274: void I2C_SetDataCompleteCallback(i2c_callback_t 
      +                          cb, void *ptr);mcc_generated_files/i2c_master.c: 275: {;mcc_generated_files/i2c_master.c
      +                          : 276:     I2C_SetCallback(I2C_DATA_COMPLETE, cb, ptr);
  5301   0019F0  C006  F001         	movff	i2I2C_SetDataCompleteCallback@cb,i2I2C_SetCallback@cb
  5302   0019F4  C007  F002         	movff	i2I2C_SetDataCompleteCallback@cb+1,i2I2C_SetCallback@cb+1
  5303   0019F8  C008  F003         	movff	i2I2C_SetDataCompleteCallback@ptr,i2I2C_SetCallback@ptr
  5304   0019FC  C009  F004         	movff	i2I2C_SetDataCompleteCallback@ptr+1,i2I2C_SetCallback@ptr+1
  5305   001A00  0E00               	movlw	0
  5306   001A02  EC4A  F00A         	call	i2_I2C_SetCallback
  5307   001A06  0012               	return		;funcret
  5308   001A08                     __end_ofi2_I2C_SetDataCompleteCallback:
  5309                           	callstack 0
  5310                           
  5311 ;; *************** function i2_I2C_SetCallback *****************
  5312 ;; Defined at:
  5313 ;;		line 304 in file "mcc_generated_files/i2c_master.c"
  5314 ;; Parameters:    Size  Location     Type
  5315 ;;  idx             1    wreg     enum E3139
  5316 ;;  cb              2    0[COMRAM] PTR FTN(PTR void ,)enum 
  5317 ;;		 -> NULL(1), rdBlkRegCompleteHandler(1), wr2RegCompleteHandler(1), wr1RegCompleteHandler(1), 
  5318 ;;		 -> rd2RegCompleteHandler(1), rd1RegCompleteHandler(1), 
  5319 ;;  ptr             2    2[COMRAM] PTR void 
  5320 ;;		 -> I2C_ReadDataBlock@bufferBlock(4), I2C_Write2ByteRegister@data(2), I2C_Write1ByteRegister@data(1), I2C_Read2ByteR
      +egister@returnValue(2), 
  5321 ;;		 -> NULL(0), I2C_Read1ByteRegister@returnValue(1), 
  5322 ;; Auto vars:     Size  Location     Type
  5323 ;;  idx             1    4[COMRAM] enum E3139
  5324 ;; Return value:  Size  Location     Type
  5325 ;;                  1    wreg      void 
  5326 ;; Registers used:
  5327 ;;		wreg, fsr2l, fsr2h, status,2, status,0, prodl, prodh
  5328 ;; Tracked objects:
  5329 ;;		On entry : 0/0
  5330 ;;		On exit  : 0/0
  5331 ;;		Unchanged: 0/0
  5332 ;; Data sizes:     COMRAM   BANK0   BANK1   BANK2   BANK3   BANK4   BANK5   BANK6   BANK7   BANK8   BANK9  BANK10  BANK1
      +1  BANK12  BANK13  BANK14  BANK15
  5333 ;;      Params:         4       0       0       0       0       0       0       0       0       0       0       0       
      +0       0       0       0       0
  5334 ;;      Locals:         1       0       0       0       0       0       0       0       0       0       0       0       
      +0       0       0       0       0
  5335 ;;      Temps:          0       0       0       0       0       0       0       0       0       0       0       0       
      +0       0       0       0       0
  5336 ;;      Totals:         5       0       0       0       0       0       0       0       0       0       0       0       
      +0       0       0       0       0
  5337 ;;Total ram usage:        5 bytes
  5338 ;; Hardware stack levels used: 1
  5339 ;; This function calls:
  5340 ;;		Nothing
  5341 ;; This function is called by:
  5342 ;;		i2_I2C_SetDataCompleteCallback
  5343 ;; This function uses a non-reentrant model
  5344 ;;
  5345                           
  5346                           	psect	text69
  5347   001494                     __ptext69:
  5348                           	callstack 0
  5349   001494                     i2_I2C_SetCallback:
  5350                           	callstack 19
  5351                           
  5352                           ;incstack = 0
  5353                           ;i2I2C_SetCallback@idx stored from wreg
  5354   001494  6E05               	movwf	i2I2C_SetCallback@idx^0,c
  5355   001496                     
  5356                           ;mcc_generated_files/i2c_master.c: 304: static void I2C_SetCallback(i2c_callbackIndex_t 
      +                          idx, i2c_callback_t cb, void *ptr);mcc_generated_files/i2c_master.c: 305: {;mcc_generate
      +                          d_files/i2c_master.c: 306:     if(cb)
  5357   001496  5001               	movf	i2I2C_SetCallback@cb^0,w,c
  5358   001498  1002               	iorwf	(i2I2C_SetCallback@cb+1)^0,w,c
  5359   00149A  B4D8               	btfsc	status,2,c
  5360   00149C  EF52  F00A         	goto	i2u62_41
  5361   0014A0  EF54  F00A         	goto	i2u62_40
  5362   0014A4                     i2u62_41:
  5363   0014A4  EF6E  F00A         	goto	i2l2365
  5364   0014A8                     i2u62_40:
  5365   0014A8                     
  5366                           ;mcc_generated_files/i2c_master.c: 307:     {;mcc_generated_files/i2c_master.c: 308:    
      +                               I2C_Status.callbackTable[idx] = cb;
  5367   0014A8  5005               	movf	i2I2C_SetCallback@idx^0,w,c
  5368   0014AA  0D02               	mullw	2
  5369   0014AC  0E60               	movlw	low _I2C_Status
  5370   0014AE  24F3               	addwf	243,w,c
  5371   0014B0  6ED9               	movwf	fsr2l,c
  5372   0014B2  0E00               	movlw	high _I2C_Status
  5373   0014B4  20F4               	addwfc	prodh,w,c
  5374   0014B6  6EDA               	movwf	fsr2h,c
  5375   0014B8  C001  FFDE         	movff	i2I2C_SetCallback@cb,postinc2
  5376   0014BC  C002  FFDD         	movff	i2I2C_SetCallback@cb+1,postdec2
  5377                           
  5378                           ;mcc_generated_files/i2c_master.c: 309:         I2C_Status.callbackPayload[idx] = ptr;
  5379   0014C0  5005               	movf	i2I2C_SetCallback@idx^0,w,c
  5380   0014C2  0D02               	mullw	2
  5381   0014C4  0E6C               	movlw	low (_I2C_Status+12)
  5382   0014C6  24F3               	addwf	243,w,c
  5383   0014C8  6ED9               	movwf	fsr2l,c
  5384   0014CA  0E00               	movlw	high (_I2C_Status+12)
  5385   0014CC  20F4               	addwfc	prodh,w,c
  5386   0014CE  6EDA               	movwf	fsr2h,c
  5387   0014D0  C003  FFDE         	movff	i2I2C_SetCallback@ptr,postinc2
  5388   0014D4  C004  FFDD         	movff	i2I2C_SetCallback@ptr+1,postdec2
  5389                           
  5390                           ;mcc_generated_files/i2c_master.c: 310:     }
  5391   0014D8  EF84  F00A         	goto	i2l326
  5392   0014DC                     i2l2365:
  5393                           
  5394                           ;mcc_generated_files/i2c_master.c: 312:     {;mcc_generated_files/i2c_master.c: 313:    
      +                               I2C_Status.callbackTable[idx] = I2C_CallbackReturnStop;
  5395   0014DC  5005               	movf	i2I2C_SetCallback@idx^0,w,c
  5396   0014DE  0D02               	mullw	2
  5397   0014E0  0E60               	movlw	low _I2C_Status
  5398   0014E2  24F3               	addwf	243,w,c
  5399   0014E4  6ED9               	movwf	fsr2l,c
  5400   0014E6  0E00               	movlw	high _I2C_Status
  5401   0014E8  20F4               	addwfc	prodh,w,c
  5402   0014EA  6EDA               	movwf	fsr2h,c
  5403   0014EC  0E92               	movlw	low _I2C_CallbackReturnStop
  5404   0014EE  6EDE               	movwf	postinc2,c
  5405   0014F0  0E1B               	movlw	high _I2C_CallbackReturnStop
  5406   0014F2  6EDD               	movwf	postdec2,c
  5407                           
  5408                           ;mcc_generated_files/i2c_master.c: 314:         I2C_Status.callbackPayload[idx] = ((void
      +                          *)0);
  5409   0014F4  5005               	movf	i2I2C_SetCallback@idx^0,w,c
  5410   0014F6  0D02               	mullw	2
  5411   0014F8  0E6C               	movlw	low (_I2C_Status+12)
  5412   0014FA  24F3               	addwf	243,w,c
  5413   0014FC  6ED9               	movwf	fsr2l,c
  5414   0014FE  0E00               	movlw	high (_I2C_Status+12)
  5415   001500  20F4               	addwfc	prodh,w,c
  5416   001502  6EDA               	movwf	fsr2h,c
  5417   001504  6ADE               	clrf	postinc2,c
  5418   001506  6ADD               	clrf	postdec2,c
  5419   001508                     i2l326:
  5420   001508  0012               	return		;funcret
  5421   00150A                     __end_ofi2_I2C_SetCallback:
  5422                           	callstack 0
  5423                           
  5424 ;; *************** function i2_I2C_SetBuffer *****************
  5425 ;; Defined at:
  5426 ;;		line 264 in file "mcc_generated_files/i2c_master.c"
  5427 ;; Parameters:    Size  Location     Type
  5428 ;;  buffer          2    0[COMRAM] PTR void 
  5429 ;;		 -> I2C_Read1ByteRegister@returnValue.data(3), I2C_Read2ByteRegister@returnValue.data(3), I2C_Write1ByteRegister@dat
      +a.data(3), I2C_Write2ByteRegister@data.data(3), 
  5430 ;;		 -> I2C_ReadDataBlock@reg(1), I2C_ReadDataBlock@bufferBlock(4), bufferBlock.data(3), I2C_Write2ByteRegister@reg(1), 
  5431 ;;		 -> I2C_Write2ByteRegister@data(2), I2C_Write1ByteRegister@reg(1), I2C_Write1ByteRegister@data(1), I2C_Read2ByteRegi
      +ster@reg(1), 
  5432 ;;		 -> I2C_Read2ByteRegister@returnValue(2), NULL(0), I2C_Read1ByteRegister@reg(1), I2C_Read1ByteRegister@returnValue(1
      +), 
  5433 ;;  bufferSize      2    2[COMRAM] unsigned int 
  5434 ;; Auto vars:     Size  Location     Type
  5435 ;;		None
  5436 ;; Return value:  Size  Location     Type
  5437 ;;                  1    wreg      void 
  5438 ;; Registers used:
  5439 ;;		wreg, status,2, status,0
  5440 ;; Tracked objects:
  5441 ;;		On entry : 0/0
  5442 ;;		On exit  : 0/0
  5443 ;;		Unchanged: 0/0
  5444 ;; Data sizes:     COMRAM   BANK0   BANK1   BANK2   BANK3   BANK4   BANK5   BANK6   BANK7   BANK8   BANK9  BANK10  BANK1
      +1  BANK12  BANK13  BANK14  BANK15
  5445 ;;      Params:         4       0       0       0       0       0       0       0       0       0       0       0       
      +0       0       0       0       0
  5446 ;;      Locals:         0       0       0       0       0       0       0       0       0       0       0       0       
      +0       0       0       0       0
  5447 ;;      Temps:          0       0       0       0       0       0       0       0       0       0       0       0       
      +0       0       0       0       0
  5448 ;;      Totals:         4       0       0       0       0       0       0       0       0       0       0       0       
      +0       0       0       0       0
  5449 ;;Total ram usage:        4 bytes
  5450 ;; Hardware stack levels used: 1
  5451 ;; This function calls:
  5452 ;;		Nothing
  5453 ;; This function is called by:
  5454 ;;		_rd1RegCompleteHandler
  5455 ;;		_rd2RegCompleteHandler
  5456 ;;		_wr1RegCompleteHandler
  5457 ;;		_wr2RegCompleteHandler
  5458 ;;		_rdBlkRegCompleteHandler
  5459 ;; This function uses a non-reentrant model
  5460 ;;
  5461                           
  5462                           	psect	text70
  5463   001958                     __ptext70:
  5464                           	callstack 0
  5465   001958                     i2_I2C_SetBuffer:
  5466                           	callstack 20
  5467   001958                     
  5468                           ;mcc_generated_files/i2c_master.c: 264: void I2C_SetBuffer(void *buffer, size_t bufferSi
      +                          ze);mcc_generated_files/i2c_master.c: 265: {;mcc_generated_files/i2c_master.c: 266:     
      +                          if(I2C_Status.bufferFree)
  5469   001958  0100               	movlb	0	; () banked
  5470   00195A  A783               	btfss	(_I2C_Status+35)& (0+255),3,b
  5471   00195C  EFB2  F00C         	goto	i2u63_41
  5472   001960  EFB4  F00C         	goto	i2u63_40
  5473   001964                     i2u63_41:
  5474   001964  EFBD  F00C         	goto	i2l303
  5475   001968                     i2u63_40:
  5476   001968                     
  5477                           ; BSR set to: 0
  5478                           ;mcc_generated_files/i2c_master.c: 267:     {;mcc_generated_files/i2c_master.c: 268:    
      +                               I2C_Status.data_ptr = buffer;
  5479   001968  C001  F07D         	movff	i2I2C_SetBuffer@buffer,_I2C_Status+29
  5480   00196C  C002  F07E         	movff	i2I2C_SetBuffer@buffer+1,_I2C_Status+30
  5481   001970                     
  5482                           ; BSR set to: 0
  5483                           ;mcc_generated_files/i2c_master.c: 269:         I2C_Status.data_length = bufferSize;
  5484   001970  C003  F07F         	movff	i2I2C_SetBuffer@bufferSize,_I2C_Status+31
  5485   001974  C004  F080         	movff	i2I2C_SetBuffer@bufferSize+1,_I2C_Status+32
  5486   001978                     
  5487                           ; BSR set to: 0
  5488                           ;mcc_generated_files/i2c_master.c: 270:         I2C_Status.bufferFree = 0;
  5489   001978  9783               	bcf	(_I2C_Status+35)& (0+255),3,b
  5490   00197A                     i2l303:
  5491                           
  5492                           ; BSR set to: 0
  5493   00197A  0012               	return		;funcret
  5494   00197C                     __end_ofi2_I2C_SetBuffer:
  5495                           	callstack 0
  5496                           
  5497 ;; *************** function _I2C_MasterStop *****************
  5498 ;; Defined at:
  5499 ;;		line 594 in file "mcc_generated_files/i2c_master.c"
  5500 ;; Parameters:    Size  Location     Type
  5501 ;;		None
  5502 ;; Auto vars:     Size  Location     Type
  5503 ;;		None
  5504 ;; Return value:  Size  Location     Type
  5505 ;;                  1    wreg      void 
  5506 ;; Registers used:
  5507 ;;		None
  5508 ;; Tracked objects:
  5509 ;;		On entry : 0/0
  5510 ;;		On exit  : 0/0
  5511 ;;		Unchanged: 0/0
  5512 ;; Data sizes:     COMRAM   BANK0   BANK1   BANK2   BANK3   BANK4   BANK5   BANK6   BANK7   BANK8   BANK9  BANK10  BANK1
      +1  BANK12  BANK13  BANK14  BANK15
  5513 ;;      Params:         0       0       0       0       0       0       0       0       0       0       0       0       
      +0       0       0       0       0
  5514 ;;      Locals:         0       0       0       0       0       0       0       0       0       0       0       0       
      +0       0       0       0       0
  5515 ;;      Temps:          0       0       0       0       0       0       0       0       0       0       0       0       
      +0       0       0       0       0
  5516 ;;      Totals:         0       0       0       0       0       0       0       0       0       0       0       0       
      +0       0       0       0       0
  5517 ;;Total ram usage:        0 bytes
  5518 ;; Hardware stack levels used: 1
  5519 ;; This function calls:
  5520 ;;		Nothing
  5521 ;; This function is called by:
  5522 ;;		_I2C_DO_SEND_STOP
  5523 ;; This function uses a non-reentrant model
  5524 ;;
  5525                           
  5526                           	psect	text71
  5527   001B96                     __ptext71:
  5528                           	callstack 0
  5529   001B96                     _I2C_MasterStop:
  5530                           	callstack 20
  5531   001B96                     
  5532                           ;mcc_generated_files/i2c_master.c: 596:     SSPCON2bits.PEN = 1;
  5533   001B96  84C5               	bsf	197,2,c	;volatile
  5534   001B98  0012               	return		;funcret
  5535   001B9A                     __end_of_I2C_MasterStop:
  5536                           	callstack 0
  5537                           
  5538 ;; *************** function _I2C_MasterEnableRestart *****************
  5539 ;; Defined at:
  5540 ;;		line 574 in file "mcc_generated_files/i2c_master.c"
  5541 ;; Parameters:    Size  Location     Type
  5542 ;;		None
  5543 ;; Auto vars:     Size  Location     Type
  5544 ;;		None
  5545 ;; Return value:  Size  Location     Type
  5546 ;;                  1    wreg      void 
  5547 ;; Registers used:
  5548 ;;		None
  5549 ;; Tracked objects:
  5550 ;;		On entry : 0/0
  5551 ;;		On exit  : 0/0
  5552 ;;		Unchanged: 0/0
  5553 ;; Data sizes:     COMRAM   BANK0   BANK1   BANK2   BANK3   BANK4   BANK5   BANK6   BANK7   BANK8   BANK9  BANK10  BANK1
      +1  BANK12  BANK13  BANK14  BANK15
  5554 ;;      Params:         0       0       0       0       0       0       0       0       0       0       0       0       
      +0       0       0       0       0
  5555 ;;      Locals:         0       0       0       0       0       0       0       0       0       0       0       0       
      +0       0       0       0       0
  5556 ;;      Temps:          0       0       0       0       0       0       0       0       0       0       0       0       
      +0       0       0       0       0
  5557 ;;      Totals:         0       0       0       0       0       0       0       0       0       0       0       0       
      +0       0       0       0       0
  5558 ;;Total ram usage:        0 bytes
  5559 ;; Hardware stack levels used: 1
  5560 ;; This function calls:
  5561 ;;		Nothing
  5562 ;; This function is called by:
  5563 ;;		_I2C_DO_SEND_RESTART_READ
  5564 ;;		_I2C_DO_SEND_RESTART_WRITE
  5565 ;;		_I2C_DO_SEND_RESTART
  5566 ;;		_I2C_DO_RX_EMPTY
  5567 ;; This function uses a non-reentrant model
  5568 ;;
  5569                           
  5570                           	psect	text72
  5571   001B9A                     __ptext72:
  5572                           	callstack 0
  5573   001B9A                     _I2C_MasterEnableRestart:
  5574                           	callstack 20
  5575   001B9A                     
  5576                           ;mcc_generated_files/i2c_master.c: 576:     SSPCON2bits.RSEN = 1;
  5577   001B9A  82C5               	bsf	197,1,c	;volatile
  5578   001B9C  0012               	return		;funcret
  5579   001B9E                     __end_of_I2C_MasterEnableRestart:
  5580                           	callstack 0
  5581                           
  5582                           	psect	text73
  5583   000000                     __ptext73:
  5584                           	callstack 0
  5585   000000                     
  5586                           	psect	rparam
  5587   000000                     
  5588                           	psect	temp
  5589   000046                     btemp:
  5590                           	callstack 0
  5591   000046                     	ds	1
  5592   000000                     int$flags	set	btemp
  5593   000000                     wtemp8	set	btemp+1
  5594   000000                     ttemp5	set	btemp+1
  5595   000000                     ttemp6	set	btemp+4
  5596   000000                     ttemp7	set	btemp+8
  5597                           
  5598                           	psect	config
  5599                           
  5600                           ; Padding undefined space
  5601   300000                     	org	3145728
  5602   300000  FF                 	db	255
  5603                           
  5604                           ;Config register CONFIG1H @ 0x300001
  5605                           ;	Oscillator Selection bits
  5606                           ;	FOSC = HS, HS oscillator
  5607                           ;	Fail-Safe Clock Monitor Enable bit
  5608                           ;	FCMEN = OFF, Fail-Safe Clock Monitor disabled
  5609                           ;	Internal/External Oscillator Switchover bit
  5610                           ;	IESO = OFF, Oscillator Switchover mode disabled
  5611   300001                     	org	3145729
  5612   300001  02                 	db	2
  5613                           
  5614                           ;Config register CONFIG2L @ 0x300002
  5615                           ;	Power-up Timer Enable bit
  5616                           ;	PWRT = OFF, PWRT disabled
  5617                           ;	Brown-out Reset Enable bits
  5618                           ;	BOREN = SBORDIS, Brown-out Reset enabled in hardware only (SBOREN is disabled)
  5619                           ;	Brown Out Reset Voltage bits
  5620                           ;	BORV = 18, VBOR set to 1.8 V nominal
  5621   300002                     	org	3145730
  5622   300002  1F                 	db	31
  5623                           
  5624                           ;Config register CONFIG2H @ 0x300003
  5625                           ;	Watchdog Timer Enable bit
  5626                           ;	WDTEN = OFF, WDT is controlled by SWDTEN bit of the WDTCON register
  5627                           ;	Watchdog Timer Postscale Select bits
  5628                           ;	WDTPS = 32768, 1:32768
  5629   300003                     	org	3145731
  5630   300003  1E                 	db	30
  5631                           
  5632                           ; Padding undefined space
  5633   300004                     	org	3145732
  5634   300004  FF                 	db	255
  5635                           
  5636                           ;Config register CONFIG3H @ 0x300005
  5637                           ;	CCP2 MUX bit
  5638                           ;	CCP2MX = PORTC, CCP2 input/output is multiplexed with RC1
  5639                           ;	PORTB A/D Enable bit
  5640                           ;	PBADEN = ON, PORTB<4:0> pins are configured as analog input channels on Reset
  5641                           ;	Low-Power Timer1 Oscillator Enable bit
  5642                           ;	LPT1OSC = OFF, Timer1 configured for higher power operation
  5643                           ;	HFINTOSC Fast Start-up
  5644                           ;	HFOFST = ON, HFINTOSC starts clocking the CPU without waiting for the oscillator to st
      +                          ablize.
  5645                           ;	MCLR Pin Enable bit
  5646                           ;	MCLRE = ON, MCLR pin enabled; RE3 input pin disabled
  5647   300005                     	org	3145733
  5648   300005  8B                 	db	139
  5649                           
  5650                           ;Config register CONFIG4L @ 0x300006
  5651                           ;	Stack Full/Underflow Reset Enable bit
  5652                           ;	STVREN = ON, Stack full/underflow will cause Reset
  5653                           ;	Single-Supply ICSP Enable bit
  5654                           ;	LVP = ON, Single-Supply ICSP enabled
  5655                           ;	Extended Instruction Set Enable bit
  5656                           ;	XINST = OFF, Instruction set extension and Indexed Addressing mode disabled (Legacy mo
      +                          de)
  5657                           ;	Background Debugger Enable bit
  5658                           ;	DEBUG = OFF, Background debugger disabled, RB6 and RB7 configured as general purpose I
      +                          /O pins
  5659   300006                     	org	3145734
  5660   300006  85                 	db	133
  5661                           
  5662                           ; Padding undefined space
  5663   300007                     	org	3145735
  5664   300007  FF                 	db	255
  5665                           
  5666                           ;Config register CONFIG5L @ 0x300008
  5667                           ;	Code Protection Block 0
  5668                           ;	CP0 = OFF, Block 0 (000800-003FFFh) not code-protected
  5669                           ;	Code Protection Block 1
  5670                           ;	CP1 = OFF, Block 1 (004000-007FFFh) not code-protected
  5671                           ;	Code Protection Block 2
  5672                           ;	CP2 = OFF, Block 2 (008000-00BFFFh) not code-protected
  5673                           ;	Code Protection Block 3
  5674                           ;	CP3 = OFF, Block 3 (00C000-00FFFFh) not code-protected
  5675   300008                     	org	3145736
  5676   300008  0F                 	db	15
  5677                           
  5678                           ;Config register CONFIG5H @ 0x300009
  5679                           ;	Boot Block Code Protection bit
  5680                           ;	CPB = OFF, Boot block (000000-0007FFh) not code-protected
  5681                           ;	Data EEPROM Code Protection bit
  5682                           ;	CPD = OFF, Data EEPROM not code-protected
  5683   300009                     	org	3145737
  5684   300009  C0                 	db	192
  5685                           
  5686                           ;Config register CONFIG6L @ 0x30000A
  5687                           ;	Write Protection Block 0
  5688                           ;	WRT0 = OFF, Block 0 (000800-003FFFh) not write-protected
  5689                           ;	Write Protection Block 1
  5690                           ;	WRT1 = OFF, Block 1 (004000-007FFFh) not write-protected
  5691                           ;	Write Protection Block 2
  5692                           ;	WRT2 = OFF, Block 2 (008000-00BFFFh) not write-protected
  5693                           ;	Write Protection Block 3
  5694                           ;	WRT3 = OFF, Block 3 (00C000h-00FFFFh) not write-protected
  5695   30000A                     	org	3145738
  5696   30000A  0F                 	db	15
  5697                           
  5698                           ;Config register CONFIG6H @ 0x30000B
  5699                           ;	Configuration Register Write Protection bit
  5700                           ;	WRTC = OFF, Configuration registers (300000-3000FFh) not write-protected
  5701                           ;	Boot Block Write Protection bit
  5702                           ;	WRTB = OFF, Boot Block (000000-0007FFh) not write-protected
  5703                           ;	Data EEPROM Write Protection bit
  5704                           ;	WRTD = OFF, Data EEPROM not write-protected
  5705   30000B                     	org	3145739
  5706   30000B  E0                 	db	224
  5707                           
  5708                           ;Config register CONFIG7L @ 0x30000C
  5709                           ;	Table Read Protection Block 0
  5710                           ;	EBTR0 = OFF, Block 0 (000800-003FFFh) not protected from table reads executed in other
      +                           blocks
  5711                           ;	Table Read Protection Block 1
  5712                           ;	EBTR1 = OFF, Block 1 (004000-007FFFh) not protected from table reads executed in other
      +                           blocks
  5713                           ;	Table Read Protection Block 2
  5714                           ;	EBTR2 = OFF, Block 2 (008000-00BFFFh) not protected from table reads executed in other
      +                           blocks
  5715                           ;	Table Read Protection Block 3
  5716                           ;	EBTR3 = OFF, Block 3 (00C000-00FFFFh) not protected from table reads executed in other
      +                           blocks
  5717   30000C                     	org	3145740
  5718   30000C  0F                 	db	15
  5719                           
  5720                           ;Config register CONFIG7H @ 0x30000D
  5721                           ;	Boot Block Table Read Protection bit
  5722                           ;	EBTRB = OFF, Boot Block (000000-0007FFh) not protected from table reads executed in ot
      +                          her blocks
  5723   30000D                     	org	3145741
  5724   30000D  40                 	db	64
  5725                           tosu	equ	0xFFF
  5726                           tosh	equ	0xFFE
  5727                           tosl	equ	0xFFD
  5728                           stkptr	equ	0xFFC
  5729                           pclatu	equ	0xFFB
  5730                           pclath	equ	0xFFA
  5731                           pcl	equ	0xFF9
  5732                           tblptru	equ	0xFF8
  5733                           tblptrh	equ	0xFF7
  5734                           tblptrl	equ	0xFF6
  5735                           tablat	equ	0xFF5
  5736                           prodh	equ	0xFF4
  5737                           prodl	equ	0xFF3
  5738                           indf0	equ	0xFEF
  5739                           postinc0	equ	0xFEE
  5740                           postdec0	equ	0xFED
  5741                           preinc0	equ	0xFEC
  5742                           plusw0	equ	0xFEB
  5743                           fsr0h	equ	0xFEA
  5744                           fsr0l	equ	0xFE9
  5745                           wreg	equ	0xFE8
  5746                           indf1	equ	0xFE7
  5747                           postinc1	equ	0xFE6
  5748                           postdec1	equ	0xFE5
  5749                           preinc1	equ	0xFE4
  5750                           plusw1	equ	0xFE3
  5751                           fsr1h	equ	0xFE2
  5752                           fsr1l	equ	0xFE1
  5753                           bsr	equ	0xFE0
  5754                           indf2	equ	0xFDF
  5755                           postinc2	equ	0xFDE
  5756                           postdec2	equ	0xFDD
  5757                           preinc2	equ	0xFDC
  5758                           plusw2	equ	0xFDB
  5759                           fsr2h	equ	0xFDA
  5760                           fsr2l	equ	0xFD9
  5761                           status	equ	0xFD8

Data Sizes:
    Strings     25
    Constant    32
    Data        0
    BSS         56
    Persistent  6
    Stack       0

Auto Spaces:
    Space          Size  Autos    Used
    COMRAM           94     43      69
    BANK0           160      2      38
    BANK1           256      0       0
    BANK2           256      0       0
    BANK3           256      0       0
    BANK4           256      0       0
    BANK5           256      0       0
    BANK6           256      0       0
    BANK7           256      0       0
    BANK8           256      0       0
    BANK9           256      0       0
    BANK10          256      0       0
    BANK11          256      0       0
    BANK12          256      0       0
    BANK13          256      0       0
    BANK14          256      0       0
    BANK15           96      0       0

Pointer List with Targets:

    I2C_Read1ByteRegister@returnValue.data	PTR unsigned char  size(2) Largest target is 0

    I2C_Read2ByteRegister@returnValue.data	PTR unsigned char  size(2) Largest target is 0

    I2C_Write1ByteRegister@data.data	PTR unsigned char  size(2) Largest target is 0

    I2C_Write2ByteRegister@data.data	PTR unsigned char  size(2) Largest target is 0

    I2C_DO_TX$2519$0	PTR void  size(2) Largest target is 5
		 -> I2C_ReadDataBlock@bufferBlock(COMRAM[4]), I2C_Write2ByteRegister@data(COMRAM[2]), I2C_Write1ByteRegister@data(COMRAM[1]), I2C_Read2ByteRegister@returnValue(COMRAM[2]), 
		 -> NULL(NULL[0]), I2C_Read1ByteRegister@returnValue(COMRAM[1]), 

    I2C_DO_RX$2525$0	PTR void  size(2) Largest target is 5
		 -> I2C_ReadDataBlock@bufferBlock(COMRAM[4]), I2C_Write2ByteRegister@data(COMRAM[2]), I2C_Write1ByteRegister@data(COMRAM[1]), I2C_Read2ByteRegister@returnValue(COMRAM[2]), 
		 -> NULL(NULL[0]), I2C_Read1ByteRegister@returnValue(COMRAM[1]), 

    I2C_DO_TX_EMPTY$2531$0	PTR void  size(2) Largest target is 5
		 -> I2C_ReadDataBlock@bufferBlock(COMRAM[4]), I2C_Write2ByteRegister@data(COMRAM[2]), I2C_Write1ByteRegister@data(COMRAM[1]), I2C_Read2ByteRegister@returnValue(COMRAM[2]), 
		 -> NULL(NULL[0]), I2C_Read1ByteRegister@returnValue(COMRAM[1]), 

    I2C_DO_RX_EMPTY$2537$0	PTR void  size(2) Largest target is 5
		 -> I2C_ReadDataBlock@bufferBlock(COMRAM[4]), I2C_Write2ByteRegister@data(COMRAM[2]), I2C_Write1ByteRegister@data(COMRAM[1]), I2C_Read2ByteRegister@returnValue(COMRAM[2]), 
		 -> NULL(NULL[0]), I2C_Read1ByteRegister@returnValue(COMRAM[1]), 

    I2C_DO_TX_EMPTY$2536	PTR void  size(2) Largest target is 5
		 -> I2C_ReadDataBlock@bufferBlock(COMRAM[4]), I2C_Write2ByteRegister@data(COMRAM[2]), I2C_Write1ByteRegister@data(COMRAM[1]), I2C_Read2ByteRegister@returnValue(COMRAM[2]), 
		 -> NULL(NULL[0]), I2C_Read1ByteRegister@returnValue(COMRAM[1]), 

    I2C_DO_TX_EMPTY$2531	PTR FTN(PTR void ,)enum E363 size(2) Largest target is 1
		 -> I2C_CallbackReturnReset(), I2C_CallbackReturnStop(), NULL(), rdBlkRegCompleteHandler(), 
		 -> wr2RegCompleteHandler(), wr1RegCompleteHandler(), rd2RegCompleteHandler(), rd1RegCompleteHandler(), 

    I2C_DO_RX$2530	PTR void  size(2) Largest target is 5
		 -> I2C_ReadDataBlock@bufferBlock(COMRAM[4]), I2C_Write2ByteRegister@data(COMRAM[2]), I2C_Write1ByteRegister@data(COMRAM[1]), I2C_Read2ByteRegister@returnValue(COMRAM[2]), 
		 -> NULL(NULL[0]), I2C_Read1ByteRegister@returnValue(COMRAM[1]), 

    I2C_DO_RX$2525	PTR FTN(PTR void ,)enum E363 size(2) Largest target is 1
		 -> I2C_CallbackReturnReset(), I2C_CallbackReturnStop(), NULL(), rdBlkRegCompleteHandler(), 
		 -> wr2RegCompleteHandler(), wr1RegCompleteHandler(), rd2RegCompleteHandler(), rd1RegCompleteHandler(), 

    I2C_DO_TX$2524	PTR void  size(2) Largest target is 5
		 -> I2C_ReadDataBlock@bufferBlock(COMRAM[4]), I2C_Write2ByteRegister@data(COMRAM[2]), I2C_Write1ByteRegister@data(COMRAM[1]), I2C_Read2ByteRegister@returnValue(COMRAM[2]), 
		 -> NULL(NULL[0]), I2C_Read1ByteRegister@returnValue(COMRAM[1]), 

    I2C_DO_TX$2519	PTR FTN(PTR void ,)enum E363 size(2) Largest target is 1
		 -> I2C_CallbackReturnReset(), I2C_CallbackReturnStop(), NULL(), rdBlkRegCompleteHandler(), 
		 -> wr2RegCompleteHandler(), wr1RegCompleteHandler(), rd2RegCompleteHandler(), rd1RegCompleteHandler(), 

    I2C_MasterFsm$2518	const PTR FTN()enum E3121 size(2) Largest target is 1
		 -> I2C_DO_ADDRESS_NACK(), I2C_DO_RESET(), I2C_DO_RX_NACK_RESTART(), I2C_DO_RX_NACK_STOP(), 
		 -> I2C_DO_RX_ACK(), I2C_DO_SEND_STOP(), I2C_DO_SEND_RESTART(), I2C_DO_SEND_RESTART_WRITE(), 
		 -> I2C_DO_SEND_RESTART_READ(), I2C_DO_TX_EMPTY(), I2C_DO_RCEN(), I2C_DO_RX(), 
		 -> I2C_DO_TX(), I2C_DO_SEND_ADR_WRITE(), I2C_DO_SEND_ADR_READ(), I2C_DO_IDLE(), 

    I2C_CallbackReturnStop@funPtr	PTR void  size(2) Largest target is 5
		 -> I2C_ReadDataBlock@bufferBlock(COMRAM[4]), I2C_Write2ByteRegister@data(COMRAM[2]), I2C_Write1ByteRegister@data(COMRAM[1]), I2C_Read2ByteRegister@returnValue(COMRAM[2]), 
		 -> NULL(NULL[0]), I2C_Read1ByteRegister@returnValue(COMRAM[1]), 

    I2C_CallbackReturnReset@funPtr	PTR void  size(2) Largest target is 5
		 -> I2C_ReadDataBlock@bufferBlock(COMRAM[4]), I2C_Write2ByteRegister@data(COMRAM[2]), I2C_Write1ByteRegister@data(COMRAM[1]), I2C_Read2ByteRegister@returnValue(COMRAM[2]), 
		 -> NULL(NULL[0]), I2C_Read1ByteRegister@returnValue(COMRAM[1]), 

    cb$0	PTR void  size(2) Largest target is 5
		 -> I2C_ReadDataBlock@bufferBlock(COMRAM[4]), I2C_Write2ByteRegister@data(COMRAM[2]), I2C_Write1ByteRegister@data(COMRAM[1]), I2C_Read2ByteRegister@returnValue(COMRAM[2]), 
		 -> NULL(NULL[0]), I2C_Read1ByteRegister@returnValue(COMRAM[1]), 

    NULL$0	PTR void  size(2) Largest target is 5
		 -> I2C_ReadDataBlock@bufferBlock(COMRAM[4]), I2C_Write2ByteRegister@data(COMRAM[2]), I2C_Write1ByteRegister@data(COMRAM[1]), I2C_Read2ByteRegister@returnValue(COMRAM[2]), 
		 -> NULL(NULL[0]), I2C_Read1ByteRegister@returnValue(COMRAM[1]), 

    cb$0	PTR void  size(2) Largest target is 5
		 -> I2C_ReadDataBlock@bufferBlock(COMRAM[4]), I2C_Write2ByteRegister@data(COMRAM[2]), I2C_Write1ByteRegister@data(COMRAM[1]), I2C_Read2ByteRegister@returnValue(COMRAM[2]), 
		 -> NULL(NULL[0]), I2C_Read1ByteRegister@returnValue(COMRAM[1]), 

    S404$0$0	PTR void  size(2) Largest target is 5
		 -> I2C_ReadDataBlock@bufferBlock(COMRAM[4]), I2C_Write2ByteRegister@data(COMRAM[2]), I2C_Write1ByteRegister@data(COMRAM[1]), I2C_Read2ByteRegister@returnValue(COMRAM[2]), 
		 -> NULL(NULL[0]), I2C_Read1ByteRegister@returnValue(COMRAM[1]), 

    EUSART_SetErrorHandler@interruptHandler	PTR FTN()void  size(2) Largest target is 1
		 -> EUSART_DefaultErrorHandler(), 

    EUSART_ErrorHandler	PTR FTN()void  size(2) Largest target is 1
		 -> EUSART_DefaultErrorHandler(), NULL(), 

    EUSART_SetOverrunErrorHandler@interruptHandler	PTR FTN()void  size(2) Largest target is 1
		 -> EUSART_DefaultOverrunErrorHandler(), 

    EUSART_OverrunErrorHandler	PTR FTN()void  size(2) Largest target is 1
		 -> EUSART_DefaultOverrunErrorHandler(), NULL(), 

    EUSART_SetFramingErrorHandler@interruptHandler	PTR FTN()void  size(2) Largest target is 1
		 -> EUSART_DefaultFramingErrorHandler(), 

    EUSART_FramingErrorHandler	PTR FTN()void  size(2) Largest target is 1
		 -> EUSART_DefaultFramingErrorHandler(), NULL(), 

    I2C_SetCallback@ptr	PTR void  size(2) Largest target is 5
		 -> I2C_ReadDataBlock@bufferBlock(COMRAM[4]), I2C_Write2ByteRegister@data(COMRAM[2]), I2C_Write1ByteRegister@data(COMRAM[1]), I2C_Read2ByteRegister@returnValue(COMRAM[2]), 
		 -> NULL(NULL[0]), I2C_Read1ByteRegister@returnValue(COMRAM[1]), 

    I2C_SetCallback@cb	PTR FTN(PTR void ,)enum E363 size(2) Largest target is 1
		 -> NULL(), rdBlkRegCompleteHandler(), wr2RegCompleteHandler(), wr1RegCompleteHandler(), 
		 -> rd2RegCompleteHandler(), rd1RegCompleteHandler(), 

    I2C_SetInterruptHandler@InterruptHandler	PTR FTN()void  size(2) Largest target is 1
		 -> I2C_MasterIsr(), 

    MSSP_InterruptHandler	PTR FTN()void  size(2) Largest target is 1
		 -> I2C_MasterIsr(), NULL(), 

    I2C_SetAddressNackCallback@ptr	PTR void  size(2) Largest target is 0
		 -> NULL(NULL[0]), 

    I2C_SetAddressNackCallback@cb	PTR FTN(PTR void ,)enum E363 size(2) Largest target is 1
		 -> NULL(), 

    I2C_SetDataCompleteCallback@ptr	PTR void  size(2) Largest target is 5
		 -> I2C_ReadDataBlock@bufferBlock(COMRAM[4]), I2C_Write2ByteRegister@data(COMRAM[2]), I2C_Write1ByteRegister@data(COMRAM[1]), I2C_Read2ByteRegister@returnValue(COMRAM[2]), 
		 -> NULL(NULL[0]), I2C_Read1ByteRegister@returnValue(COMRAM[1]), 

    I2C_SetDataCompleteCallback@cb	PTR FTN(PTR void ,)enum E363 size(2) Largest target is 1
		 -> NULL(), rdBlkRegCompleteHandler(), wr2RegCompleteHandler(), wr1RegCompleteHandler(), 
		 -> rd2RegCompleteHandler(), rd1RegCompleteHandler(), 

    I2C_SetBuffer@buffer	PTR void  size(2) Largest target is 5
		 -> I2C_ReadDataBlock@reg(COMRAM[1]), I2C_ReadDataBlock@bufferBlock(COMRAM[4]), I2C_Write2ByteRegister@reg(COMRAM[1]), I2C_Write2ByteRegister@data(COMRAM[2]), 
		 -> I2C_Write1ByteRegister@reg(COMRAM[1]), I2C_Write1ByteRegister@data(COMRAM[1]), I2C_Read2ByteRegister@reg(COMRAM[1]), I2C_Read2ByteRegister@returnValue(COMRAM[2]), 
		 -> NULL(NULL[0]), I2C_Read1ByteRegister@reg(COMRAM[1]), I2C_Read1ByteRegister@returnValue(COMRAM[1]), 

    S404$data_ptr	PTR unsigned char  size(2) Largest target is 5
		 -> I2C_ReadDataBlock@reg(COMRAM[1]), I2C_ReadDataBlock@bufferBlock(COMRAM[4]), I2C_Write2ByteRegister@reg(COMRAM[1]), I2C_Write2ByteRegister@data(COMRAM[2]), 
		 -> I2C_Write1ByteRegister@reg(COMRAM[1]), I2C_Write1ByteRegister@data(COMRAM[1]), I2C_Read2ByteRegister@reg(COMRAM[1]), I2C_Read2ByteRegister@returnValue(COMRAM[2]), 
		 -> NULL(NULL[0]), I2C_Read1ByteRegister@reg(COMRAM[1]), I2C_Read1ByteRegister@returnValue(COMRAM[1]), 

    I2C_Status.data_ptr	PTR unsigned char  size(2) Largest target is 5
		 -> I2C_Read1ByteRegister@returnValue.data(COMRAM[3]), I2C_Read2ByteRegister@returnValue.data(COMRAM[3]), I2C_Write1ByteRegister@data.data(COMRAM[3]), I2C_Write2ByteRegister@data.data(COMRAM[3]), 
		 -> I2C_ReadDataBlock@reg(COMRAM[1]), I2C_ReadDataBlock@bufferBlock(COMRAM[4]), bufferBlock.data(COMRAM[3]), I2C_Write2ByteRegister@reg(COMRAM[1]), 
		 -> I2C_Write2ByteRegister@data(COMRAM[2]), I2C_Write1ByteRegister@reg(COMRAM[1]), I2C_Write1ByteRegister@data(COMRAM[1]), I2C_Read2ByteRegister@reg(COMRAM[1]), 
		 -> I2C_Read2ByteRegister@returnValue(COMRAM[2]), NULL(NULL[0]), I2C_Read1ByteRegister@reg(COMRAM[1]), I2C_Read1ByteRegister@returnValue(COMRAM[1]), 

    S404$callbackPayload	PTR void [6] size(2) Largest target is 5
		 -> I2C_ReadDataBlock@bufferBlock(COMRAM[4]), I2C_Write2ByteRegister@data(COMRAM[2]), I2C_Write1ByteRegister@data(COMRAM[1]), I2C_Read2ByteRegister@returnValue(COMRAM[2]), 
		 -> NULL(NULL[0]), I2C_Read1ByteRegister@returnValue(COMRAM[1]), 

    I2C_Status.callbackPayload	PTR void [6] size(2) Largest target is 5
		 -> I2C_ReadDataBlock@bufferBlock(COMRAM[4]), I2C_Write2ByteRegister@data(COMRAM[2]), I2C_Write1ByteRegister@data(COMRAM[1]), I2C_Read2ByteRegister@returnValue(COMRAM[2]), 
		 -> NULL(NULL[0]), I2C_Read1ByteRegister@returnValue(COMRAM[1]), 

    S404$callbackTable	PTR FTN(PTR void ,)enum E363[6] size(2) Largest target is 1
		 -> I2C_CallbackReturnReset(), I2C_CallbackReturnStop(), NULL(), rdBlkRegCompleteHandler(), 
		 -> wr2RegCompleteHandler(), wr1RegCompleteHandler(), rd2RegCompleteHandler(), rd1RegCompleteHandler(), 

    I2C_Status.callbackTable	PTR FTN(PTR void ,)enum E363[6] size(2) Largest target is 1
		 -> I2C_CallbackReturnReset(), I2C_CallbackReturnStop(), NULL(), rdBlkRegCompleteHandler(), 
		 -> wr2RegCompleteHandler(), wr1RegCompleteHandler(), rd2RegCompleteHandler(), rd1RegCompleteHandler(), 

    i2c_fsmStateTable	const PTR FTN()enum E3121[16] size(2) Largest target is 1
		 -> I2C_DO_ADDRESS_NACK(), I2C_DO_RESET(), I2C_DO_RX_NACK_RESTART(), I2C_DO_RX_NACK_STOP(), 
		 -> I2C_DO_RX_ACK(), I2C_DO_SEND_STOP(), I2C_DO_SEND_RESTART(), I2C_DO_SEND_RESTART_WRITE(), 
		 -> I2C_DO_SEND_RESTART_READ(), I2C_DO_TX_EMPTY(), I2C_DO_RCEN(), I2C_DO_RX(), 
		 -> I2C_DO_TX(), I2C_DO_SEND_ADR_WRITE(), I2C_DO_SEND_ADR_READ(), I2C_DO_IDLE(), 

    rdBlkRegCompleteHandler@ptr.data	PTR unsigned char  size(2) Largest target is 0

    rdBlkRegCompleteHandler@ptr	PTR void  size(2) Largest target is 5
		 -> I2C_ReadDataBlock@bufferBlock(COMRAM[4]), I2C_Write2ByteRegister@data(COMRAM[2]), I2C_Write1ByteRegister@data(COMRAM[1]), I2C_Read2ByteRegister@returnValue(COMRAM[2]), 
		 -> NULL(NULL[0]), I2C_Read1ByteRegister@returnValue(COMRAM[1]), 

    wr2RegCompleteHandler@ptr	PTR void  size(2) Largest target is 5
		 -> I2C_ReadDataBlock@bufferBlock(COMRAM[4]), I2C_Write2ByteRegister@data(COMRAM[2]), I2C_Write1ByteRegister@data(COMRAM[1]), I2C_Read2ByteRegister@returnValue(COMRAM[2]), 
		 -> NULL(NULL[0]), I2C_Read1ByteRegister@returnValue(COMRAM[1]), 

    wr1RegCompleteHandler@ptr	PTR void  size(2) Largest target is 5
		 -> I2C_ReadDataBlock@bufferBlock(COMRAM[4]), I2C_Write2ByteRegister@data(COMRAM[2]), I2C_Write1ByteRegister@data(COMRAM[1]), I2C_Read2ByteRegister@returnValue(COMRAM[2]), 
		 -> NULL(NULL[0]), I2C_Read1ByteRegister@returnValue(COMRAM[1]), 

    rd2RegCompleteHandler@ptr	PTR void  size(2) Largest target is 5
		 -> I2C_ReadDataBlock@bufferBlock(COMRAM[4]), I2C_Write2ByteRegister@data(COMRAM[2]), I2C_Write1ByteRegister@data(COMRAM[1]), I2C_Read2ByteRegister@returnValue(COMRAM[2]), 
		 -> NULL(NULL[0]), I2C_Read1ByteRegister@returnValue(COMRAM[1]), 

    rd1RegCompleteHandler@ptr	PTR void  size(2) Largest target is 5
		 -> I2C_ReadDataBlock@bufferBlock(COMRAM[4]), I2C_Write2ByteRegister@data(COMRAM[2]), I2C_Write1ByteRegister@data(COMRAM[1]), I2C_Read2ByteRegister@returnValue(COMRAM[2]), 
		 -> NULL(NULL[0]), I2C_Read1ByteRegister@returnValue(COMRAM[1]), 

    S135$data	PTR unsigned char  size(2) Largest target is 0

    bufferBlock.data	PTR unsigned char  size(2) Largest target is 0

    UART_SEND_STRING@string	PTR unsigned char  size(2) Largest target is 17
		 -> STR_2(CODE[17]), STR_1(CODE[8]), Date_pack(COMRAM[8]), 


Critical Paths under _main in COMRAM

    _main->_RealTimeClock_Get_Date_Time
    _Temp_Sensor_TC74_ReadValue->_I2C_Read1ByteRegister
    _Send_Date_UART->_UART_SEND_STRING
    _UART_SEND_STRING->_EUSART_Write
    _EUSART_Initialize->_EUSART_SetErrorHandler
    _EUSART_Initialize->_EUSART_SetFramingErrorHandler
    _EUSART_Initialize->_EUSART_SetOverrunErrorHandler
    _RealTimeClock_Get_Date_Time->_I2C_Read1ByteRegister
    _EEPROM_24C02C_Write_Byte->_I2C_Write1ByteRegister
    _I2C_Write1ByteRegister->_I2C_SetAddressNackCallback
    _I2C_Write1ByteRegister->_I2C_SetDataCompleteCallback
    _EEPROM_24C02C_Read_Byte->_I2C_Read1ByteRegister
    _I2C_Read1ByteRegister->_I2C_SetAddressNackCallback
    _I2C_Read1ByteRegister->_I2C_SetDataCompleteCallback
    _I2C_SetDataCompleteCallback->_I2C_SetCallback
    _I2C_SetAddressNackCallback->_I2C_SetCallback
    _I2C_Open->_I2C_SetInterruptHandler
    _I2C_MasterWrite->_I2C_MasterOperation

Critical Paths under _INTERRUPT_InterruptManagerHigh in COMRAM

    _I2C_MasterIsr->_I2C_MasterFsm
    _I2C_MasterFsm->_I2C_DO_ADDRESS_NACK
    _I2C_MasterFsm->_I2C_DO_RX
    _I2C_MasterFsm->_I2C_DO_TX
    _I2C_MasterFsm->_I2C_DO_TX_EMPTY
    _I2C_DO_TX_EMPTY->_I2C_CallbackReturnReset
    _I2C_DO_TX_EMPTY->_I2C_CallbackReturnStop
    _I2C_DO_TX_EMPTY->_rd1RegCompleteHandler
    _I2C_DO_TX_EMPTY->_rd2RegCompleteHandler
    _I2C_DO_TX_EMPTY->_rdBlkRegCompleteHandler
    _I2C_DO_TX_EMPTY->_wr1RegCompleteHandler
    _I2C_DO_TX_EMPTY->_wr2RegCompleteHandler
    _I2C_DO_TX->_I2C_CallbackReturnReset
    _I2C_DO_TX->_I2C_CallbackReturnStop
    _I2C_DO_TX->_rd1RegCompleteHandler
    _I2C_DO_TX->_rd2RegCompleteHandler
    _I2C_DO_TX->_rdBlkRegCompleteHandler
    _I2C_DO_TX->_wr1RegCompleteHandler
    _I2C_DO_TX->_wr2RegCompleteHandler
    _I2C_DO_SEND_ADR_WRITE->_I2C_MasterSendTxData
    _I2C_DO_RX->_I2C_CallbackReturnReset
    _I2C_DO_RX->_I2C_CallbackReturnStop
    _I2C_DO_RX->_rd1RegCompleteHandler
    _I2C_DO_RX->_rd2RegCompleteHandler
    _I2C_DO_RX->_rdBlkRegCompleteHandler
    _I2C_DO_RX->_wr1RegCompleteHandler
    _I2C_DO_RX->_wr2RegCompleteHandler
    _I2C_DO_ADDRESS_NACK->_I2C_CallbackReturnReset
    _I2C_DO_ADDRESS_NACK->_I2C_CallbackReturnStop
    _I2C_DO_ADDRESS_NACK->_rd1RegCompleteHandler
    _I2C_DO_ADDRESS_NACK->_rd2RegCompleteHandler
    _I2C_DO_ADDRESS_NACK->_rdBlkRegCompleteHandler
    _I2C_DO_ADDRESS_NACK->_wr1RegCompleteHandler
    _I2C_DO_ADDRESS_NACK->_wr2RegCompleteHandler
    _wr2RegCompleteHandler->i2_I2C_SetDataCompleteCallback
    _wr1RegCompleteHandler->i2_I2C_SetDataCompleteCallback
    _rdBlkRegCompleteHandler->i2_I2C_SetDataCompleteCallback
    _rd2RegCompleteHandler->i2_I2C_SetDataCompleteCallback
    _rd1RegCompleteHandler->i2_I2C_SetDataCompleteCallback
    i2_I2C_SetDataCompleteCallback->i2_I2C_SetCallback

Critical Paths under _main in BANK0

    None.

Critical Paths under _INTERRUPT_InterruptManagerHigh in BANK0

    None.

Critical Paths under _main in BANK1

    None.

Critical Paths under _INTERRUPT_InterruptManagerHigh in BANK1

    None.

Critical Paths under _main in BANK2

    None.

Critical Paths under _INTERRUPT_InterruptManagerHigh in BANK2

    None.

Critical Paths under _main in BANK3

    None.

Critical Paths under _INTERRUPT_InterruptManagerHigh in BANK3

    None.

Critical Paths under _main in BANK4

    None.

Critical Paths under _INTERRUPT_InterruptManagerHigh in BANK4

    None.

Critical Paths under _main in BANK5

    None.

Critical Paths under _INTERRUPT_InterruptManagerHigh in BANK5

    None.

Critical Paths under _main in BANK6

    None.

Critical Paths under _INTERRUPT_InterruptManagerHigh in BANK6

    None.

Critical Paths under _main in BANK7

    None.

Critical Paths under _INTERRUPT_InterruptManagerHigh in BANK7

    None.

Critical Paths under _main in BANK8

    None.

Critical Paths under _INTERRUPT_InterruptManagerHigh in BANK8

    None.

Critical Paths under _main in BANK9

    None.

Critical Paths under _INTERRUPT_InterruptManagerHigh in BANK9

    None.

Critical Paths under _main in BANK10

    None.

Critical Paths under _INTERRUPT_InterruptManagerHigh in BANK10

    None.

Critical Paths under _main in BANK11

    None.

Critical Paths under _INTERRUPT_InterruptManagerHigh in BANK11

    None.

Critical Paths under _main in BANK12

    None.

Critical Paths under _INTERRUPT_InterruptManagerHigh in BANK12

    None.

Critical Paths under _main in BANK13

    None.

Critical Paths under _INTERRUPT_InterruptManagerHigh in BANK13

    None.

Critical Paths under _main in BANK14

    None.

Critical Paths under _INTERRUPT_InterruptManagerHigh in BANK14

    None.

Critical Paths under _main in BANK15

    None.

Critical Paths under _INTERRUPT_InterruptManagerHigh in BANK15

    None.

Call Graph Tables:

 ---------------------------------------------------------------------------------
 (Depth) Function   	        Calls       Base Space   Used Autos Params    Refs
 ---------------------------------------------------------------------------------
 (0) _main                                                 8     8      0   34436
                                              0 BANK0      2     2      0
            _EEPROM_24C02C_Read_Byte
           _EEPROM_24C02C_Write_Byte
             _I2C_Write1ByteRegister
        _RealTimeClock_Get_Date_Time
                  _SYSTEM_Initialize
                     _Send_Date_UART
         _Temp_Sensor_TC74_ReadValue
                   _UART_SEND_STRING
 ---------------------------------------------------------------------------------
 (1) _Temp_Sensor_TC74_ReadValue                           2     2      0    6661
                                             37 COMRAM     2     2      0
              _I2C_Read1ByteRegister
 ---------------------------------------------------------------------------------
 (1) _Send_Date_UART                                       0     0      0     541
                   _UART_SEND_STRING
 ---------------------------------------------------------------------------------
 (1) _UART_SEND_STRING                                     4     1      3     541
                                             26 COMRAM     4     1      3
                       _EUSART_Write
 ---------------------------------------------------------------------------------
 (2) _EUSART_Write                                         1     1      0      15
                                             25 COMRAM     1     1      0
 ---------------------------------------------------------------------------------
 (1) _SYSTEM_Initialize                                    0     0      0     294
                  _EUSART_Initialize
                     _I2C_Initialize
               _INTERRUPT_Initialize
              _OSCILLATOR_Initialize
             _PIN_MANAGER_Initialize
 ---------------------------------------------------------------------------------
 (2) _PIN_MANAGER_Initialize                               0     0      0       0
 ---------------------------------------------------------------------------------
 (2) _OSCILLATOR_Initialize                                0     0      0       0
 ---------------------------------------------------------------------------------
 (2) _INTERRUPT_Initialize                                 0     0      0       0
 ---------------------------------------------------------------------------------
 (2) _I2C_Initialize                                       0     0      0       0
 ---------------------------------------------------------------------------------
 (2) _EUSART_Initialize                                    0     0      0     294
             _EUSART_SetErrorHandler
      _EUSART_SetFramingErrorHandler
      _EUSART_SetOverrunErrorHandler
 ---------------------------------------------------------------------------------
 (3) _EUSART_SetOverrunErrorHandler                        2     0      2      98
                                             25 COMRAM     2     0      2
 ---------------------------------------------------------------------------------
 (3) _EUSART_SetFramingErrorHandler                        2     0      2      98
                                             25 COMRAM     2     0      2
 ---------------------------------------------------------------------------------
 (3) _EUSART_SetErrorHandler                               2     0      2      98
                                             25 COMRAM     2     0      2
 ---------------------------------------------------------------------------------
 (1) _RealTimeClock_Get_Date_Time                          6     0      6    6615
                                             37 COMRAM     6     0      6
              _I2C_Read1ByteRegister
 ---------------------------------------------------------------------------------
 (1) _EEPROM_24C02C_Write_Byte                             3     1      2    6658
                                             37 COMRAM     3     1      2
             _I2C_Write1ByteRegister
 ---------------------------------------------------------------------------------
 (1) _I2C_Write1ByteRegister                               3     1      2    6288
                                             34 COMRAM     3     1      2
                          _I2C_Close
                    _I2C_MasterWrite
                           _I2C_Open
         _I2C_SetAddressNackCallback
                      _I2C_SetBuffer
        _I2C_SetDataCompleteCallback
 ---------------------------------------------------------------------------------
 (1) _EEPROM_24C02C_Read_Byte                              3     2      1    6835
                                             37 COMRAM     3     2      1
              _I2C_Read1ByteRegister
 ---------------------------------------------------------------------------------
 (2) _I2C_Read1ByteRegister                                3     2      1    6615
                                             34 COMRAM     3     2      1
                          _I2C_Close
                    _I2C_MasterWrite
                           _I2C_Open
         _I2C_SetAddressNackCallback
                      _I2C_SetBuffer
        _I2C_SetDataCompleteCallback
 ---------------------------------------------------------------------------------
 (3) _I2C_SetDataCompleteCallback                          4     0      4    2218
                                             30 COMRAM     4     0      4
                    _I2C_SetCallback
 ---------------------------------------------------------------------------------
 (3) _I2C_SetBuffer                                        4     0      4    1608
                                             25 COMRAM     4     0      4
 ---------------------------------------------------------------------------------
 (3) _I2C_SetAddressNackCallback                           4     0      4    1870
                                             30 COMRAM     4     0      4
                    _I2C_SetCallback
 ---------------------------------------------------------------------------------
 (4) _I2C_SetCallback                                      5     1      4     914
                                             25 COMRAM     5     1      4
 ---------------------------------------------------------------------------------
 (3) _I2C_Open                                             2     2      0     144
                                             27 COMRAM     2     2      0
                 _I2C_MasterClearIrq
                _I2C_MasterEnableIrq
                     _I2C_MasterOpen
            _I2C_SetInterruptHandler
 ---------------------------------------------------------------------------------
 (4) _I2C_SetInterruptHandler                              2     0      2      98
                                             25 COMRAM     2     0      2
 ---------------------------------------------------------------------------------
 (4) _I2C_MasterOpen                                       0     0      0       0
 ---------------------------------------------------------------------------------
 (4) _I2C_MasterEnableIrq                                  0     0      0       0
 ---------------------------------------------------------------------------------
 (3) _I2C_MasterWrite                                      0     0      0      46
                _I2C_MasterOperation
 ---------------------------------------------------------------------------------
 (4) _I2C_MasterOperation                                  2     2      0      46
                                             25 COMRAM     2     2      0
                    _I2C_MasterStart
 ---------------------------------------------------------------------------------
 (5) _I2C_MasterStart                                      0     0      0       0
 ---------------------------------------------------------------------------------
 (3) _I2C_Close                                            1     1      0      24
                                             25 COMRAM     1     1      0
                 _I2C_MasterClearIrq
                    _I2C_MasterClose
               _I2C_MasterDisableIrq
 ---------------------------------------------------------------------------------
 (4) _I2C_MasterDisableIrq                                 0     0      0       0
 ---------------------------------------------------------------------------------
 (4) _I2C_MasterClose                                      0     0      0       0
 ---------------------------------------------------------------------------------
 (4) _I2C_MasterClearIrq                                   0     0      0       0
 ---------------------------------------------------------------------------------
 Estimated maximum stack depth 5
 ---------------------------------------------------------------------------------
 (Depth) Function   	        Calls       Base Space   Used Autos Params    Refs
 ---------------------------------------------------------------------------------
 (6) _INTERRUPT_InterruptManagerHigh                      10    10      0   17934
                                             15 COMRAM    10    10      0
                                NULL *
                      _I2C_MasterIsr *
 ---------------------------------------------------------------------------------
 (7) _I2C_MasterIsr                                        0     0      0   17934
                      _I2C_MasterFsm
 ---------------------------------------------------------------------------------
 (8) _I2C_MasterFsm                                        2     2      0   17934
                                             13 COMRAM     2     2      0
                _I2C_DO_ADDRESS_NACK *
                        _I2C_DO_IDLE *
                        _I2C_DO_RCEN *
                       _I2C_DO_RESET *
                          _I2C_DO_RX *
                      _I2C_DO_RX_ACK *
             _I2C_DO_RX_NACK_RESTART *
                _I2C_DO_RX_NACK_STOP *
               _I2C_DO_SEND_ADR_READ *
              _I2C_DO_SEND_ADR_WRITE *
                _I2C_DO_SEND_RESTART *
           _I2C_DO_SEND_RESTART_READ *
          _I2C_DO_SEND_RESTART_WRITE *
                   _I2C_DO_SEND_STOP *
                          _I2C_DO_TX *
                    _I2C_DO_TX_EMPTY *
                   _I2C_MasterIsNack
               i2_I2C_MasterClearIrq
 ---------------------------------------------------------------------------------
 (9) i2_I2C_MasterClearIrq                                 0     0      0       0
 ---------------------------------------------------------------------------------
 (9) _I2C_DO_TX_EMPTY                                      2     2      0    4467
                                             11 COMRAM     2     2      0
                                NULL *
            _I2C_CallbackReturnReset *
             _I2C_CallbackReturnStop *
                _I2C_DO_SEND_RESTART
                   _I2C_DO_SEND_STOP
                   _I2C_MasterSetIrq
              _rd1RegCompleteHandler *
              _rd2RegCompleteHandler *
            _rdBlkRegCompleteHandler *
              _wr1RegCompleteHandler *
              _wr2RegCompleteHandler *
 ---------------------------------------------------------------------------------
 (10) _I2C_MasterSetIrq                                    0     0      0       0
 ---------------------------------------------------------------------------------
 (9) _I2C_DO_TX                                            2     2      0    4489
                                             11 COMRAM     2     2      0
                                NULL *
            _I2C_CallbackReturnReset *
             _I2C_CallbackReturnStop *
           _I2C_DO_SEND_RESTART_READ
          _I2C_DO_SEND_RESTART_WRITE
                   _I2C_DO_SEND_STOP
                   _I2C_MasterIsNack
               _I2C_MasterSendTxData
              _rd1RegCompleteHandler *
              _rd2RegCompleteHandler *
            _rdBlkRegCompleteHandler *
              _wr1RegCompleteHandler *
              _wr2RegCompleteHandler *
 ---------------------------------------------------------------------------------
 (9) _I2C_MasterIsNack                                     0     0      0       0
 ---------------------------------------------------------------------------------
 (10) _I2C_DO_SEND_RESTART_WRITE                           0     0      0       0
            _I2C_MasterEnableRestart
 ---------------------------------------------------------------------------------
 (10) _I2C_DO_SEND_RESTART_READ                            0     0      0       0
            _I2C_MasterEnableRestart
 ---------------------------------------------------------------------------------
 (9) _I2C_DO_SEND_ADR_WRITE                                0     0      0      22
               _I2C_MasterSendTxData
 ---------------------------------------------------------------------------------
 (9) _I2C_DO_SEND_ADR_READ                                 0     0      0      22
               _I2C_MasterSendTxData
 ---------------------------------------------------------------------------------
 (10) _I2C_MasterSendTxData                                1     1      0      22
                                              0 COMRAM     1     1      0
 ---------------------------------------------------------------------------------
 (9) _I2C_DO_RX_ACK                                        0     0      0       0
                  _I2C_MasterSendAck
 ---------------------------------------------------------------------------------
 (9) _I2C_DO_RX                                            2     2      0    4467
                                             11 COMRAM     2     2      0
                                NULL *
            _I2C_CallbackReturnReset *
             _I2C_CallbackReturnStop *
             _I2C_DO_RX_NACK_RESTART
                _I2C_DO_RX_NACK_STOP
                _I2C_MasterGetRxData
                  _I2C_MasterSendAck
              _rd1RegCompleteHandler *
              _rd2RegCompleteHandler *
            _rdBlkRegCompleteHandler *
              _wr1RegCompleteHandler *
              _wr2RegCompleteHandler *
 ---------------------------------------------------------------------------------
 (10) _I2C_MasterSendAck                                   0     0      0       0
 ---------------------------------------------------------------------------------
 (10) _I2C_MasterGetRxData                                 0     0      0       0
 ---------------------------------------------------------------------------------
 (9) _I2C_DO_RX_NACK_STOP                                  0     0      0       0
                 _I2C_MasterSendNack
 ---------------------------------------------------------------------------------
 (9) _I2C_DO_RX_NACK_RESTART                               0     0      0       0
                 _I2C_MasterSendNack
 ---------------------------------------------------------------------------------
 (10) _I2C_MasterSendNack                                  0     0      0       0
 ---------------------------------------------------------------------------------
 (9) _I2C_DO_RESET                                         0     0      0       0
 ---------------------------------------------------------------------------------
 (9) _I2C_DO_RCEN                                          0     0      0       0
                  _I2C_MasterStartRx
 ---------------------------------------------------------------------------------
 (10) _I2C_MasterStartRx                                   0     0      0       0
 ---------------------------------------------------------------------------------
 (9) _I2C_DO_IDLE                                          0     0      0       0
 ---------------------------------------------------------------------------------
 (9) _I2C_DO_ADDRESS_NACK                                  2     2      0    4467
                                             11 COMRAM     2     2      0
                                NULL *
            _I2C_CallbackReturnReset *
             _I2C_CallbackReturnStop *
                _I2C_DO_SEND_RESTART
                   _I2C_DO_SEND_STOP
              _rd1RegCompleteHandler *
              _rd2RegCompleteHandler *
            _rdBlkRegCompleteHandler *
              _wr1RegCompleteHandler *
              _wr2RegCompleteHandler *
 ---------------------------------------------------------------------------------
 (10) _wr2RegCompleteHandler                               2     0      2     836
                                              9 COMRAM     2     0      2
                    i2_I2C_SetBuffer
      i2_I2C_SetDataCompleteCallback
 ---------------------------------------------------------------------------------
 (10) _wr1RegCompleteHandler                               2     0      2     836
                                              9 COMRAM     2     0      2
                    i2_I2C_SetBuffer
      i2_I2C_SetDataCompleteCallback
 ---------------------------------------------------------------------------------
 (10) _rdBlkRegCompleteHandler                             2     0      2     858
                                              9 COMRAM     2     0      2
                    i2_I2C_SetBuffer
      i2_I2C_SetDataCompleteCallback
 ---------------------------------------------------------------------------------
 (10) _rd2RegCompleteHandler                               2     0      2     836
                                              9 COMRAM     2     0      2
                    i2_I2C_SetBuffer
      i2_I2C_SetDataCompleteCallback
 ---------------------------------------------------------------------------------
 (10) _rd1RegCompleteHandler                               2     0      2     836
                                              9 COMRAM     2     0      2
                    i2_I2C_SetBuffer
      i2_I2C_SetDataCompleteCallback
 ---------------------------------------------------------------------------------
 (11) i2_I2C_SetDataCompleteCallback                       4     0      4     510
                                              5 COMRAM     4     0      4
                  i2_I2C_SetCallback
 ---------------------------------------------------------------------------------
 (12) i2_I2C_SetCallback                                   5     1      4     206
                                              0 COMRAM     5     1      4
 ---------------------------------------------------------------------------------
 (11) i2_I2C_SetBuffer                                     4     0      4     304
                                              0 COMRAM     4     0      4
 ---------------------------------------------------------------------------------
 (10) _I2C_DO_SEND_STOP                                    0     0      0       0
                     _I2C_MasterStop
 ---------------------------------------------------------------------------------
 (11) _I2C_MasterStop                                      0     0      0       0
 ---------------------------------------------------------------------------------
 (10) _I2C_DO_SEND_RESTART                                 0     0      0       0
            _I2C_MasterEnableRestart
 ---------------------------------------------------------------------------------
 (11) _I2C_MasterEnableRestart                             0     0      0       0
 ---------------------------------------------------------------------------------
 (10) _I2C_CallbackReturnStop                              2     0      2       0
                                              9 COMRAM     2     0      2
 ---------------------------------------------------------------------------------
 (10) _I2C_CallbackReturnReset                             2     0      2     265
                                              9 COMRAM     2     0      2
 ---------------------------------------------------------------------------------
 (10) NULL(Fake)                                           2     0      2       0
 ---------------------------------------------------------------------------------
 Estimated maximum stack depth 12
 ---------------------------------------------------------------------------------

 Call Graph Graphs:

 _main (ROOT)
   _EEPROM_24C02C_Read_Byte
     _I2C_Read1ByteRegister
       _I2C_Close
         _I2C_MasterClearIrq
         _I2C_MasterClose
         _I2C_MasterDisableIrq
       _I2C_MasterWrite
         _I2C_MasterOperation
           _I2C_MasterStart
       _I2C_Open
         _I2C_MasterClearIrq
         _I2C_MasterEnableIrq
         _I2C_MasterOpen
         _I2C_SetInterruptHandler
       _I2C_SetAddressNackCallback
         _I2C_SetCallback
       _I2C_SetBuffer
       _I2C_SetDataCompleteCallback
         _I2C_SetCallback
   _EEPROM_24C02C_Write_Byte
     _I2C_Write1ByteRegister
       _I2C_Close
       _I2C_MasterWrite
       _I2C_Open
       _I2C_SetAddressNackCallback
       _I2C_SetBuffer
       _I2C_SetDataCompleteCallback
   _I2C_Write1ByteRegister
   _RealTimeClock_Get_Date_Time
     _I2C_Read1ByteRegister
   _SYSTEM_Initialize
     _EUSART_Initialize
       _EUSART_SetErrorHandler
       _EUSART_SetFramingErrorHandler
       _EUSART_SetOverrunErrorHandler
     _I2C_Initialize
     _INTERRUPT_Initialize
     _OSCILLATOR_Initialize
     _PIN_MANAGER_Initialize
   _Send_Date_UART
     _UART_SEND_STRING
       _EUSART_Write
   _Temp_Sensor_TC74_ReadValue
     _I2C_Read1ByteRegister
   _UART_SEND_STRING

 _INTERRUPT_InterruptManagerHigh (ROOT)
   NULL(Fake) *
   _I2C_MasterIsr *
     _I2C_MasterFsm
       _I2C_DO_ADDRESS_NACK *
         NULL(Fake) *
         _I2C_CallbackReturnReset *
         _I2C_CallbackReturnStop *
         _I2C_DO_SEND_RESTART *
           _I2C_MasterEnableRestart
         _I2C_DO_SEND_STOP *
           _I2C_MasterStop
         _rd1RegCompleteHandler *
           i2_I2C_SetBuffer
           i2_I2C_SetDataCompleteCallback
             i2_I2C_SetCallback
         _rd2RegCompleteHandler *
           i2_I2C_SetBuffer
           i2_I2C_SetDataCompleteCallback
         _rdBlkRegCompleteHandler *
           i2_I2C_SetBuffer
           i2_I2C_SetDataCompleteCallback
         _wr1RegCompleteHandler *
           i2_I2C_SetBuffer
           i2_I2C_SetDataCompleteCallback
         _wr2RegCompleteHandler *
           i2_I2C_SetBuffer
           i2_I2C_SetDataCompleteCallback
       _I2C_DO_IDLE *
       _I2C_DO_RCEN *
         _I2C_MasterStartRx
       _I2C_DO_RESET *
       _I2C_DO_RX *
         NULL(Fake) *
         _I2C_CallbackReturnReset *
         _I2C_CallbackReturnStop *
         _I2C_DO_RX_NACK_RESTART *
           _I2C_MasterSendNack
         _I2C_DO_RX_NACK_STOP *
           _I2C_MasterSendNack
         _I2C_MasterGetRxData *
         _I2C_MasterSendAck *
         _rd1RegCompleteHandler *
         _rd2RegCompleteHandler *
         _rdBlkRegCompleteHandler *
         _wr1RegCompleteHandler *
         _wr2RegCompleteHandler *
       _I2C_DO_RX_ACK *
         _I2C_MasterSendAck
       _I2C_DO_RX_NACK_RESTART *
       _I2C_DO_RX_NACK_STOP *
       _I2C_DO_SEND_ADR_READ *
         _I2C_MasterSendTxData
       _I2C_DO_SEND_ADR_WRITE *
         _I2C_MasterSendTxData
       _I2C_DO_SEND_RESTART *
       _I2C_DO_SEND_RESTART_READ *
         _I2C_MasterEnableRestart
       _I2C_DO_SEND_RESTART_WRITE *
         _I2C_MasterEnableRestart
       _I2C_DO_SEND_STOP *
       _I2C_DO_TX *
         NULL(Fake) *
         _I2C_CallbackReturnReset *
         _I2C_CallbackReturnStop *
         _I2C_DO_SEND_RESTART_READ *
         _I2C_DO_SEND_RESTART_WRITE *
         _I2C_DO_SEND_STOP *
         _I2C_MasterIsNack *
         _I2C_MasterSendTxData *
         _rd1RegCompleteHandler *
         _rd2RegCompleteHandler *
         _rdBlkRegCompleteHandler *
         _wr1RegCompleteHandler *
         _wr2RegCompleteHandler *
       _I2C_DO_TX_EMPTY *
         NULL(Fake) *
         _I2C_CallbackReturnReset *
         _I2C_CallbackReturnStop *
         _I2C_DO_SEND_RESTART *
         _I2C_DO_SEND_STOP *
         _I2C_MasterSetIrq *
         _rd1RegCompleteHandler *
         _rd2RegCompleteHandler *
         _rdBlkRegCompleteHandler *
         _wr1RegCompleteHandler *
         _wr2RegCompleteHandler *
       _I2C_MasterIsNack *
       i2_I2C_MasterClearIrq *

 Address spaces:
Name               Size   Autos  Total    Cost      Usage
BIGRAM             F5F      0       0      51        0.0%
EEDATA             400      0       0       0        0.0%
BITBANK14          100      0       0      32        0.0%
BANK14             100      0       0      33        0.0%
BITBANK13          100      0       0      30        0.0%
BANK13             100      0       0      31        0.0%
BITBANK12          100      0       0      28        0.0%
BANK12             100      0       0      29        0.0%
BITBANK11          100      0       0      26        0.0%
BANK11             100      0       0      27        0.0%
BITBANK10          100      0       0      24        0.0%
BANK10             100      0       0      25        0.0%
BITBANK9           100      0       0      22        0.0%
BANK9              100      0       0      23        0.0%
BITBANK8           100      0       0      20        0.0%
BANK8              100      0       0      21        0.0%
BITBANK7           100      0       0      18        0.0%
BANK7              100      0       0      19        0.0%
BITBANK6           100      0       0      16        0.0%
BANK6              100      0       0      17        0.0%
BITBANK5           100      0       0      14        0.0%
BANK5              100      0       0      15        0.0%
BITBANK4           100      0       0      12        0.0%
BANK4              100      0       0      13        0.0%
BITBANK3           100      0       0      10        0.0%
BANK3              100      0       0      11        0.0%
BITBANK2           100      0       0       8        0.0%
BANK2              100      0       0       9        0.0%
BITBANK1           100      0       0       6        0.0%
BANK1              100      0       0       7        0.0%
BITBANK0            A0      0       0       4        0.0%
BANK0               A0      2      26       5       23.8%
BITBANK15           60      0       0      34        0.0%
BANK15              60      0       0      35        0.0%
BITCOMRAM           5E      0       0       0        0.0%
COMRAM              5E     2B      45       1       73.4%
BITBIGSFRhhlhh      1D      0       0      38        0.0%
BITBIGSFRllll       1C      0       0      49        0.0%
BITBIGSFRhhllhh      C      0       0      41        0.0%
BITBIGSFRllh         9      0       0      47        0.0%
BITBIGSFRhhllhh      7      0       0      42        0.0%
BITBIGSFRhhhh        7      0       0      36        0.0%
BITBIGSFRhhlhll      6      0       0      40        0.0%
BITBIGSFRhhllll      4      0       0      45        0.0%
BITBIGSFRhll         4      0       0      46        0.0%
BITBIGSFRhhllhl      3      0       0      43        0.0%
BITBIGSFRhhlhlh      2      0       0      39        0.0%
BITBIGSFRhhhl        2      0       0      37        0.0%
BITBIGSFRhhllll      1      0       0      44        0.0%
BITBIGSFRlllh        1      0       0      48        0.0%
BIGSFR               0      0       0     200        0.0%
BITSFR               0      0       0     200        0.0%
SFR                  0      0       0     200        0.0%
STACK                0      0       0       2        0.0%
NULL                 0      0       0       0        0.0%
ABS                  0      0      6B      50        0.0%
DATA                 0      0      6B       3        0.0%
CODE                 0      0       0       0        0.0%


Microchip Technology PIC18 Macro Assembler V2.41 build 20230208172133 
Symbol Table                                                                                   Thu Oct 05 18:09:33 2023

                       ??_I2C_DO_SEND_ADR_READ 0001                     ??_EEPROM_24C02C_Write_Byte 0028  
                                            l9 1A7E                        ??_I2C_DO_SEND_ADR_WRITE 0002  
                                  _SSPSTATbits 0FC7                                             l12 1A90  
                                           l27 1768                                             l19 1A6C  
                                           l62 157C                                             l80 165A  
                                           u80 1A18                                             u81 1A14  
                 EEPROM_24C02C_Write_Byte@data 0027                          ??_I2C_DO_SEND_RESTART 0001  
                                          l303 1956                                            l312 19EE  
                                          l321 1B06                                            l306 19D6  
                                          l164 1856                                            l326 1492  
                                          l280 1306                                            l290 17A8  
                                          l284 1882                                            l276 1A46  
                                          l700 1B0E                                            l445 19BE  
                                          l448 1B78                                            l296 1B16  
                                          l466 1B70                                            l722 171C  
                                          l636 1826                                            l660 1A0A  
                                          l493 1B74                                            l725 13A0  
                                          l590 1A32                                            l487 1B6C  
                                          l663 1A1C                                            l496 1B7C  
                                          l681 1AFC                                            l593 1ADE  
                                          l675 1AF2                                            l678 1AE8  
                                          u700 1944                                            u701 1940  
                                          u710 186C                                            u711 1868  
                                          u640 19AC                                            u800 165A  
                                          u641 19A8                                            u801 1656  
                                          u650 1780                                            u810 1526  
                                          u651 177C                                            u811 1522  
                                          u660 1796                                            u820 157A  
                                          u661 1792                                            u821 1576  
                                          u670 1432                                            u830 174C  
                                          u671 142E                                            u840 1768  
                                          u841 1764                                            u690 1280  
                                          u691 127C                                            u837 1742  
                                          u790 1606                                            u791 1602  
                                          u881 1714                         fp__I2C_DO_RX_NACK_STOP 0000  
                  ?_Temp_Sensor_TC74_ReadValue 0001                 ?_EUSART_SetFramingErrorHandler 001A  
             EEPROM_24C02C_Write_Byte@Byte_Add 0026                                            prod 0FF3  
                                          tosl 0FFD                                            wreg 0FE8  
                 ??_I2C_SetAddressNackCallback 0023                         _I2C_Write1ByteRegister 15EE  
                     ??_I2C_CallbackReturnStop 000C                                   _I2C_DO_RESET 1AB2  
                      ??_rd2RegCompleteHandler 000C                                           l1605 1A0A  
                                         l3141 1044                                           l2431 19AC  
                                         l1607 1A18                                           l3151 108C  
                                         l3143 1046                                           l3135 103C  
                                         l2441 1B76                                           l2601 186C  
                                         l2433 19BC                                           l2425 1AFE  
                                         l3161 10C6                                           l3153 1098  
                                         l3145 1056                                           l3137 1040  
                                         l2427 1B7A                                           l2603 1870  
                                         l2451 1786                                           l2443 176C  
                                         l2531 1270                                           l3163 10CE  
                                         l3155 10B2                                           l3147 1064  
                                         l3139 1042                                           l2605 187C  
                                         l2453 1796                                           l2445 1770  
                                         l2437 1B6A                                           l2429 199E  
                                         l2541 128A                                           l2533 1280  
                                         l1901 1848                                           l3165 10DC  
                                         l3157 10BE                                           l3149 1072  
                                         l2439 1B72                                           l2607 1880  
                                         l2367 1B6E                                           l2455 179E  
                                         l2447 1780                                           l2551 12A8  
                                         l2543 128E                                           l2535 1284  
                                         l2463 1420                                           l1903 184A  
                                         l3159 10C2                                           l2457 17A2  
                                         l2449 1782                                           l2561 12D0  
                                         l2553 12B0                                           l2545 1296  
                                         l2537 1286                                           l2529 126C  
                                         l2465 1432                                           l2801 157A  
                                         l1921 1B08                                           l1905 1854  
                                         l2459 17A6                                           l2571 12F8  
                                         l2563 12D8                                           l2555 12B8  
                                         l2547 1298                                           l2539 1288  
                                         l2467 1466                                           l1907 1A34  
                                         l1923 1AD6                                           l2811 1754  
                                         l2573 12FC                                           l2565 12E0  
                                         l2557 12C0                                           l2549 12A0  
                                         l2581 19C0                                           l1909 1A44  
                                         l2813 1756                                           l2805 171E  
                                         l2575 1300                                           l2567 12E8  
                                         l2559 12C8                                           l2591 19D8  
                                         l2583 1934                                           l2831 1816  
                                         l2807 172A                                           l2593 1B10  
                                         l2569 12F4                                           l2577 1304  
                                         l2585 1944                                           l2841 1A8E  
                                         l2833 1822                                           l2825 17EA  
                                         l2809 1750                                           l2587 194C  
                                         l2835 1A70                                           l2827 17FE  
                                         l2597 1858                                           l2589 1954  
                                         l2837 1A82                                           l2781 162E  
                                         l2773 15F0                                           l2765 1AEA  
                                         l2829 180A                                           l2861 1A2A  
                                         l2845 1A5E                                           l2599 185C  
                                         l2791 1526                                           l2839 1A82  
                                         l2783 1642                                           l2775 15F0  
                                         l2767 1AE0                                           l1895 1828  
                                         l2863 1A2E                                           l2855 1A1E  
                                         l2871 1308                                           l2847 1A5E  
                                         l2793 153A                                           l2785 1646  
                                         l2777 1606                                           l2865 16C2  
                                         l2769 1AF4                                           l1897 1840  
                                         l2857 1A22                                           l2881 1340  
                                         l2873 1318                                           l2849 1A6A  
                                         l2795 154E                                           l2787 150C  
                                         l2779 161A                                           l2867 170A  
                                         l1899 1842                                           l2859 1A26  
                                         l2891 136C                                           l2883 1344  
                                         l2875 131C                                           l2797 1562  
                                         l2789 1510                                           l2893 1374  
                                         l2885 134C                                           l2877 1324  
                                         l2799 1566                                           l2895 137C  
                                         l2887 1354                                           l2879 132C  
                                         l2897 1380                                           l2889 1368  
                                         l2899 1390                                           STR_1 1032  
                                         STR_2 1021                                           u1067 107E  
                                         u1077 10A4                                           _LATA 0F89  
                                         _LATB 0F8A                                           u1087 10E8  
                                         _LATC 0F8B                                           _LATD 0F8C  
                                         _LATE 0F8D                                           _WPUB 0F7C  
                      ??_wr2RegCompleteHandler 000C                                           _Temp 0036  
                                         _main 103C                                           _val1 0035  
                                         _val2 0034                       ?_I2C_CallbackReturnReset 000A  
                                         fsr0h 0FEA                                           indf0 0FEF  
                                         fsr2h 0FDA                                           fsr0l 0FE9  
                                         indf2 0FDF                                           fsr2l 0FD9  
                             __end_of_I2C_Open 1308                                           btemp 0046  
                        ?i2_I2C_MasterClearIrq 0001                                           prodh 0FF4  
                                         prodl 0FF3                                           start 00B6  
                      _I2C_SetInterruptHandler 1AFE                   fp__I2C_DO_SEND_RESTART_WRITE 0000  
                                 ___param_bank 0000                               ?_I2C_MasterClose 0001  
                                ?_EUSART_Write 0001                               ?_I2C_MasterStart 0001  
                                _I2C_DO_RX_ACK 1B28                               ?_I2C_MasterWrite 0001  
                __end_of_OSCILLATOR_Initialize 1AE0                                          ?_main 0001  
                                        _EEADR 0FA9                                          _ANSEL 0F7E  
                        _I2C_Read1ByteRegister 150A                                          i2l122 18DA  
                                        i2l131 17E8                                          i2l125 18AE  
                                        i2l303 197A                                          i2l119 1906  
                                        i2l128 1932                                          i2l400 1B46  
                                        i2l306 1A06                                          i2l403 1B3E  
                                        i2l412 1B26                                          i2l333 15EC  
                                        i2l326 1508                                          i2l342 1AA0  
                                        i2l406 1B36                                          i2l415 1B1E  
                                        i2l432 1B94                                          i2l336 1AD4  
                                        i2l424 16C0                                          i2l345 118A  
                                        i2l361 11FA                                          i2l409 1B2E  
                                        i2l329 1B5C                                          i2l362 1268  
                                        i2l418 1ABC                                          i2l435 1B90  
                                        i2l451 1B88                                          i2l339 1AB0  
                                        i2l348 11C2                                          i2l373 1AC8  
                                        i2l454 1B56                                          i2l463 1B8C  
                                        i2l472 1A5A                                          i2l457 1B9C  
                                        i2l705 006A                                          i2l475 1B62  
                                        i2l379 141C                                          i2l469 1B98  
                                        i2l397 1B4E                                          i2l709 008A  
                                        i2l478 1B68                                          i2l496 1B80  
                                        i2l499 1B84                                          _RCREG 0FAE  
                                        _RCSTA 0FAB                                          _SPBRG 0FAF  
                            ??_I2C_DO_TX_EMPTY 000C                                          _TRISA 0F92  
                                        _TRISB 0F93                                          _TRISC 0F94  
                                        _TRISD 0F95                                          _TRISE 0F96  
                                        _TXREG 0FAD                                          _TXSTA 0FAC  
                            __end_of_I2C_DO_RX 126A                              __end_of_I2C_DO_TX 11C4  
                            __end_of_I2C_Close 1884                               fp__I2C_MasterIsr 0000  
               I2C_MasterOperation@returnValue 001B                        _I2C_MasterEnableRestart 1B9A  
                                        pclath 0FFA                                          pclatu 0FFB  
                                        tablat 0FF5                               ?_I2C_SetCallback 001A  
                 I2C_SetAddressNackCallback@cb 001F                                          plusw0 0FEB  
                                        plusw2 0FDB                                          ttemp5 0047  
                                        ttemp6 004A                                          ttemp7 004E  
                                        status 0FD8                                          wtemp8 0047  
                            ?_I2C_DO_SEND_STOP 0001                               ??_Send_Date_UART 001F  
                           ??_I2C_DO_SEND_STOP 0001                       fp__rd1RegCompleteHandler 0000  
                              __initialization 197C                          i2I2C_SetBuffer@buffer 0001  
                                 __end_of_main 1100                       fp__wr1RegCompleteHandler 0000  
                    ?_I2C_DO_SEND_RESTART_READ 0001                                 ??_EUSART_Write 001A  
                               ?_I2C_DO_RX_ACK 0001                                         ??_main 0084  
                            ?_I2C_MasterIsNack 0001                                  __activetblptr 0003  
                            ?_I2C_MasterSetIrq 0001                             ??_I2C_MasterIsNack 0001  
                           ??_I2C_MasterSetIrq 0001              _EUSART_DefaultFramingErrorHandler 0000  
                   _EUSART_OverrunErrorHandler 0042                __end_of_I2C_CallbackReturnReset 1B92  
                                       _EEADRH 0FAA                                         _EEDATA 0FA8  
                                       _EECON2 0FA7                  I2C_SetDataCompleteCallback@cb 001F  
              i2I2C_SetDataCompleteCallback@cb 0006                                         _ANSELH 0F7F  
                                       i2l3013 0032                                         i2l3015 0040  
                                       i2l2401 1884                                         i2l3017 004E  
                                       i2l2411 191C                                         i2l2403 1898  
                                       i2l3019 0078                                         i2l2413 1930  
                                       i2l2405 18AC                                         i2l2421 17E6  
                                       i2l2501 1B1C                                         i2l2511 1B8A  
                                       i2l2361 1496                                         i2l2409 1908  
                                       i2l2417 17AA                                         i2l2521 1B92  
                                       i2l2513 1B38                                         i2l2505 1B20  
                                       i2l2371 1B96                                         i2l2363 14A8  
                                       i2l2419 17D2                                         i2l2611 1ACA  
                                       i2l3251 1164                                         i2l2515 1B3C  
                                       i2l2507 1B24                                         i2l2381 1978  
                                       i2l2365 14DC                                         i2l2525 1B8E  
                                       i2l2373 1B64                                         i2l3253 13F6  
                                       i2l2613 1ACE                                         i2l2621 1AA6  
                                       i2l2701 1AC2                                         i2l2375 1958  
                                       i2l2383 19F0                                         i2l2519 1B82  
                                       i2l2615 1AD2                                         i2l2623 1AAE  
                                       i2l2631 1A9E                                         i2l2703 1AC6  
                                       i2l3247 16AA                                         i2l2369 1B9A  
                                       i2l2377 1968                                         i2l2385 18DC  
                                       i2l2393 18B0                                         i2l2473 1B52  
                                       i2l2713 13B2                                         i2l3249 1242  
                                       i2l2481 1B40                                         i2l2379 1970  
                                       i2l2387 18F0                                         i2l2395 18C4  
                                       i2l2715 13B6                                         i2l2707 13A2  
                                       i2l2619 1AA2                                         i2l2627 1A92  
                                       i2l2643 1120                                         i2l2635 1100  
                                       i2l2475 1B48                                         i2l2483 1B44  
                                       i2l2731 1B28                                         i2l2389 1904  
                                       i2l2397 18D8                                         i2l2493 1B86  
                                       i2l2469 1A48                                         i2l2709 13AA  
                                       i2l2725 13C4                                         i2l2629 1A96  
                                       i2l2661 11C0                                         i2l2653 1130  
                                       i2l2477 1B4C                                         i2l2733 1B2C  
                                       i2l2741 1ABA                                         i2l2821 15A6  
                                       i2l2719 13BC                                         i2l2655 118E  
                                       i2l2647 1128                                         i2l2639 1118  
                                       i2l2671 11D2                                         i2l2487 1B30  
                                       i2l2823 15AC                                         i2l2815 157E  
                                       i2l2497 1B5E                                         i2l2657 11A0  
                                       i2l2673 11D8                                         i2l2489 1B34  
                                       i2l2737 1AB2                                         i2l2753 1670  
                                       i2l2745 165C                                         i2l2817 1582  
                                       i2l2659 11BA                                         i2l2683 1200  
                                       i2l2675 11F0                                         i2l2499 1B18  
                                       i2l2739 1AB6                                         i2l2747 1660  
                                       i2l2771 1B7E                                         i2l2819 1592  
                                       i2l2693 1210                                         i2l2677 11F4  
                                       i2l2669 11C4                                         i2l2749 1668  
                                       i2l2853 1B58                                         i2l2687 1208  
                                       i2l2759 1678                                         i2l2699 1ABE  
                                       _TABLAT 0FF5                                         _OSCCON 0FD3  
                       ??i2_I2C_MasterClearIrq 0001                      ??_I2C_SetInterruptHandler 001C  
                                       _SPBRGH 0FB0                                         _SSPADD 0FC8  
                                       _SSPBUF 0FC9                            _I2C_MasterEnableIrq 1B6A  
                          _I2C_MasterGetRxData 1B86                                  _I2C_MasterFsm 157E  
                                _I2C_MasterIsr 1B58                                         clear_0 1982  
                                       clear_1 198E                              I2C_SetCallback@cb 001A  
                      fp__I2C_DO_SEND_ADR_READ 0000                         ?_I2C_Read1ByteRegister 0023  
                                       isa$std 0001                                  _I2C_SetBuffer 1934  
                 __end_of_I2C_MasterDisableIrq 1B76                           ?_I2C_MasterEnableIrq 0001  
                             _UART_SEND_STRING 171E                            _I2C_DO_ADDRESS_NACK 165C  
                         ?_I2C_MasterGetRxData 0001                                      ?_I2C_Open 0001  
           __end_of_I2C_SetAddressNackCallback 19F0                     _I2C_SetAddressNackCallback 19D8  
                                 __mediumconst 0000                                         tblptrh 0FF7  
                                       tblptrl 0FF6                                         tblptru 0FF8  
                    ??_I2C_MasterEnableRestart 0001        I2C_SetInterruptHandler@InterruptHandler 001A  
                       UART_SEND_STRING@string 001B               ??_INTERRUPT_InterruptManagerHigh 0010  
              ?_INTERRUPT_InterruptManagerHigh 0001                              _SYSTEM_Initialize 1A1E  
                                   __accesstop 0060                        __end_of__initialization 1994  
                          _I2C_MasterOperation 176A                             ?_SYSTEM_Initialize 0001  
                                ___rparam_used 0001                           ?_I2C_DO_ADDRESS_NACK 0001  
                      _rdBlkRegCompleteHandler 17AA                     fp__rdBlkRegCompleteHandler 0000  
                               __pcstackCOMRAM 0001                                 ?_I2C_MasterFsm 0001  
                               ?_I2C_MasterIsr 0001                                ??_I2C_DO_RX_ACK 0001  
                       _I2C_CallbackReturnStop 1B92                            ??_SYSTEM_Initialize 001C  
                               ?_I2C_SetBuffer 001A                  __end_of_I2C_DO_SEND_ADR_WRITE 1AA2  
                   ?_I2C_DO_SEND_RESTART_WRITE 0001                           ?_I2C_MasterOperation 0001  
                        ??_I2C_MasterEnableIrq 001A                          ??_I2C_MasterGetRxData 0001  
                      ?_I2C_Write1ByteRegister 0023                                     ??_I2C_Open 001C  
                   __end_of_I2C_MasterClearIrq 1B7E                ??_EUSART_SetOverrunErrorHandler 001C  
                              _Time_Clock_Date 002C                      __end_of_SYSTEM_Initialize 1A34  
                            _I2C_MasterSendAck 1B5E                        _EEPROM_24C02C_Read_Byte 1A80  
                                   __pbssBANK0 0060                           __end_of_EUSART_Write 1A1E  
                                ??_I2C_DO_IDLE 0001                                  ??_I2C_DO_RCEN 0001  
                __end_of_rd2RegCompleteHandler 18DC                   __end_of_I2C_MasterSendTxData 1B58  
                           ?_I2C_MasterSendAck 0001                              _I2C_MasterStartRx 1B8A  
                                   __pnvCOMRAM 0040                   ?_RealTimeClock_Get_Date_Time 0026  
                        ??_I2C_DO_ADDRESS_NACK 000C                  __end_of_wr2RegCompleteHandler 1934  
                          _I2C_DO_RX_NACK_STOP 1B20                          _rd1RegCompleteHandler 18DC  
                           ?_I2C_MasterStartRx 0001                     __end_of_I2C_MasterSendNack 1B6A  
                        _wr1RegCompleteHandler 1884                            ??_I2C_MasterSendAck 0001  
                     rd1RegCompleteHandler@ptr 000A                    __end_of_I2C_DO_SEND_RESTART 1B40  
                              _I2C_DO_TX_EMPTY 13A2                            I2C_SetBuffer@buffer 001A  
                          ??_I2C_MasterStartRx 0001                                        _BAUDCON 0FB8  
                        ??_I2C_MasterOperation 001A                 I2C_SetDataCompleteCallback@ptr 0021  
             i2I2C_SetDataCompleteCallback@ptr 0008                 __end_of_I2C_Write1ByteRegister 165C  
                     ??_I2C_DO_RX_NACK_RESTART 0001              __end_of_I2C_DO_SEND_RESTART_WRITE 1B48  
                         ?_I2C_DO_RX_NACK_STOP 0001                                        _TBLPTRH 0FF7  
                                      _TBLPTRL 0FF6                                        _TBLPTRU 0FF8  
                    __end_of_I2C_MasterSendAck 1B64                                        i2u62_40 14A8  
                                      i2u62_41 14A4                                        _OSCTUNE 0F9B  
                                      i2u63_40 1968                                        i2u63_41 1964  
                                      i2u72_40 1114                                        i2u72_41 1110  
                                      i2u74_40 11BA                                        i2u73_48 113E  
                                      i2u74_41 11B6                                        i2u73_49 1152  
                                      i2u75_40 11F0                                        i2u75_41 11EC  
                                      i2u68_40 1A58                                        i2u68_41 1A52  
                                      i2u68_46 1A5A                                        i2u76_48 121E  
                                      i2u85_40 1592                                        i2u76_49 1230  
                                      i2u85_41 158E                                        i2u77_48 13D2  
                                      i2u86_40 15A6                                        i2u77_49 13E4  
                                      i2u86_41 15A2                                        i2u78_48 1686  
                                      i2u78_49 1698                                        i2u87_48 15D6  
                                      i2u87_49 15E8                      ?_EEPROM_24C02C_Write_Byte 0026  
                     ??_EUSART_SetErrorHandler 001C                                        _SSPCON1 0FC6  
                                      _SSPCON2 0FC5                                        _SSPSTAT 0FC7  
                    __end_of_I2C_MasterStartRx 1B8E                           I2C_Close@returnValue 001A  
                 ?_I2C_SetDataCompleteCallback 001F                                      _I2C_DO_RX 11C4  
                                    _I2C_DO_TX 1100               __end_of_I2C_DO_SEND_RESTART_READ 1B50  
                 I2C_Read1ByteRegister@address 0024                                      _I2C_Close 1858  
                    ??_rdBlkRegCompleteHandler 000C                           _I2C_MasterDisableIrq 1B72  
                            ??i2_I2C_SetBuffer 0005                  ??_RealTimeClock_Get_Date_Time 002C  
                              ??_I2C_MasterFsm 000E                                ??_I2C_MasterIsr 0010  
                                      __Hparam 0000                                        __Lparam 0000  
                          __end_of_I2C_DO_IDLE 1AD6                            __end_of_I2C_DO_RCEN 1ACA  
           EEPROM_24C02C_Write_Byte@EEPROM_Add 0028                EEPROM_24C02C_Read_Byte@Byte_Add 0026  
                              ??_I2C_SetBuffer 001E                        I2C_SetBuffer@bufferSize 001C  
                                 __psmallconst 1000                                 _I2C_MasterOpen 199E  
                                      __pcinit 197C                                 _I2C_MasterStop 1B96  
                               _I2C_Initialize 1A34                                        __ramtop 1000  
                                      __ptext0 103C                                        __ptext1 1A5C  
                                      __ptext2 1308                                        __ptext3 171E  
                                      __ptext4 1A08                                        __ptext5 1A1E  
                                      __ptext6 1828                                        __ptext7 1AD6  
                                      __ptext8 1B08                                        __ptext9 1A34  
                        ??_I2C_DO_RX_NACK_STOP 0001                          _OSCILLATOR_Initialize 1AD6  
                           I2C_SetCallback@idx 001E                       ??_PIN_MANAGER_Initialize 001A  
                I2C_CallbackReturnReset@funPtr 000A                             I2C_SetCallback@ptr 001C  
                     wr1RegCompleteHandler@ptr 000A                      I2C_Write1ByteRegister@reg 0023  
                     fp__I2C_DO_SEND_ADR_WRITE 0000                      ??_EEPROM_24C02C_Read_Byte 0027  
                         end_of_initialization 1994                                     ?_I2C_DO_RX 0001  
                                   ?_I2C_DO_TX 0001          __end_of_EUSART_SetOverrunErrorHandler 1AEA  
                _EUSART_SetOverrunErrorHandler 1AE0                                     ?_I2C_Close 0001  
                       ?_rd1RegCompleteHandler 000A                        __end_of_I2C_DO_TX_EMPTY 141E  
                        ?_I2C_MasterDisableIrq 0001                              _EUSART_Initialize 17EA  
                       ?_wr1RegCompleteHandler 000A                       __end_of_UART_SEND_STRING 176A  
                     fp__rd2RegCompleteHandler 0000                             ?_EUSART_Initialize 0001  
                                    _RCSTAbits 0FAB                                        postdec2 0FDD  
                      ??_I2C_Read1ByteRegister 0024                         __end_of_I2C_MasterOpen 19C0  
                     fp__wr2RegCompleteHandler 0000                                        postinc0 0FEE  
                                      postinc2 0FDE                         __end_of_I2C_MasterStop 1B9A  
                       __end_of_I2C_Initialize 1A48                      fp__I2C_CallbackReturnStop 0000  
                          ??_EUSART_Initialize 001C                __end_of_rdBlkRegCompleteHandler 17EA  
                         _I2C_MasterSendTxData 1B50                                fp__I2C_DO_RESET 0000  
                  ?_I2C_SetAddressNackCallback 001F              EEPROM_24C02C_Read_Byte@EEPROM_Add 0027  
                    __end_of_EUSART_Initialize 1828                                    _I2C_DO_IDLE 1ACA  
                                  _I2C_DO_RCEN 1ABE                     rdBlkRegCompleteHandler@ptr 000A  
                I2C_Write1ByteRegister@address 0025                                      _TXSTAbits 0FAC  
                                    _Date_pack 0038                        ?_I2C_CallbackReturnStop 000A  
                     _I2C_DO_SEND_RESTART_READ 1B48                    fp__I2C_DO_SEND_RESTART_READ 0000  
            Temp_Sensor_TC74_ReadValue@TempVAl 0027                              i2_I2C_SetCallback 1494  
                 I2C_CallbackReturnStop@funPtr 000A                                ?_I2C_MasterOpen 0001  
                 __end_of_INTERRUPT_Initialize 1B10                                ?_I2C_MasterStop 0001  
                              ?_I2C_Initialize 0001                        _I2C_CallbackReturnReset 1B8E  
                     I2C_Read1ByteRegister@reg 0023                     fp__I2C_CallbackReturnReset 0000  
                   _EUSART_DefaultErrorHandler 0000                             ?i2_I2C_SetCallback 0001  
              ??i2_I2C_SetDataCompleteCallback 000A                                   _EUSART_Write 1A08  
                        ?_I2C_MasterSendTxData 0001                         ?_OSCILLATOR_Initialize 0001  
                  ??_I2C_DO_SEND_RESTART_WRITE 0001                            ??i2_I2C_SetCallback 0005  
                          start_initialization 197C                   ??_Temp_Sensor_TC74_ReadValue 0026  
                                ?_I2C_DO_RESET 0001                       ?_I2C_SetInterruptHandler 001A  
                                  ??_I2C_DO_RX 000C                                    ??_I2C_DO_TX 000C  
                            ??_I2C_MasterClose 001A                         ??_I2C_MasterDisableIrq 001A  
                                  ??_I2C_Close 001A                              ??_I2C_MasterStart 001A  
                            ??_I2C_MasterWrite 001C                 __end_of_I2C_CallbackReturnStop 1B96  
                       _I2C_DO_RX_NACK_RESTART 1B18                               ?_I2C_DO_TX_EMPTY 0001  
                           _I2C_MasterClearIrq 1B7A                      __end_ofi2_I2C_SetCallback 150A  
               ?_EUSART_SetOverrunErrorHandler 001A                     _EUSART_FramingErrorHandler 0044  
                       _EUSART_SetErrorHandler 1AF4                    __end_of_I2C_MasterEnableIrq 1B6E  
                          ?_I2C_MasterClearIrq 0001                    __end_of_I2C_MasterGetRxData 1B8A  
             __end_of_EEPROM_24C02C_Write_Byte 1A80                          __end_of_I2C_DO_RX_ACK 1B30  
                             _I2C_DO_SEND_STOP 1B30                              ??_I2C_SetCallback 001E  
                          I2C_Open@returnValue 001D                             _I2C_MasterSendNack 1B64  
                     ?_I2C_MasterEnableRestart 0001                              _i2c_fsmStateTable 1001  
                       fp__I2C_DO_SEND_RESTART 0000                          _I2C_DO_SEND_ADR_WRITE 1A92  
                                  __pbssCOMRAM 002C                                  __pcstackBANK0 0084  
                               ??_I2C_DO_RESET 0001                            ?_I2C_MasterSendNack 0001  
                              i2_I2C_SetBuffer 1958                   __end_of_I2C_DO_SEND_ADR_READ 1AB2  
                         ??_I2C_MasterClearIrq 001A                    __end_of_I2C_DO_ADDRESS_NACK 16C2  
                             _I2C_MasterIsNack 1A48                      _I2C_DO_SEND_RESTART_WRITE 1B40  
                             _I2C_MasterSetIrq 1B82                          _rd2RegCompleteHandler 18B0  
                       _PIN_MANAGER_Initialize 1828                          _wr2RegCompleteHandler 1908  
                    ??_I2C_CallbackReturnReset 000C                    __end_of_I2C_MasterOperation 17AA  
                         ??_I2C_MasterSendNack 0001                       rd2RegCompleteHandler@ptr 000A  
                                    __pintcode 0008                         ??_I2C_MasterSendTxData 0001  
                    __end_of_i2c_fsmStateTable 1021                                   fp__I2C_DO_RX 0000  
                                 fp__I2C_DO_TX 0000                                    __smallconst 1000  
              __end_of_I2C_SetInterruptHandler 1B08          __end_ofi2_I2C_SetDataCompleteCallback 1A08  
                i2_I2C_SetDataCompleteCallback 19F0                        I2C_MasterOperation@read 001A  
                                     _I2C_Open 126A                        ??_rd1RegCompleteHandler 000C  
                         _INTERRUPT_Initialize 1B08                        ??_wr1RegCompleteHandler 000C  
       EUSART_SetErrorHandler@interruptHandler 001A                                       _IPR1bits 0F9F  
                                     _IPR2bits 0FA2                                       _PIE1bits 0F9D  
                                     _PIE2bits 0FA0                              _eusartRxLastError 0037  
                                     i2u101_40 0040                                       i2u101_41 003C  
                                     i2u102_40 004E                                       i2u102_41 004A  
                                     i2u104_40 0078                                       i2u103_48 0054  
                                     i2u104_41 0074                                       i2u103_49 0066  
                                     i2u105_40 0086                                       i2u105_41 0082  
                            ?_UART_SEND_STRING 001B                                       _PIR1bits 0F9E  
              ??_EUSART_SetFramingErrorHandler 001C                                       _PIR2bits 0FA1  
                        __end_of_I2C_MasterFsm 15EE                          __end_of_I2C_MasterIsr 1B5E  
                                     _RCONbits 0FD0                             ??_UART_SEND_STRING 001E  
                  __end_of_I2C_DO_RX_NACK_STOP 1B28              _EUSART_DefaultOverrunErrorHandler 0000  
              __end_of_I2C_MasterEnableRestart 1B9E                                 fp__I2C_DO_IDLE 0000  
                               fp__I2C_DO_RCEN 0000                                 _Send_Date_UART 1308  
                 UART_SEND_STRING@sting_lenght 001D                  __end_of_I2C_Read1ByteRegister 157E  
                        __end_of_I2C_SetBuffer 1958                         ?_I2C_DO_SEND_ADR_WRITE 0001  
                      __end_ofi2_I2C_SetBuffer 197C                       I2C_MasterSendTxData@data 0001  
           __end_of_Temp_Sensor_TC74_ReadValue 1A6E                     _Temp_Sensor_TC74_ReadValue 1A5C  
                     _EEPROM_24C02C_Write_Byte 1A6E                       wr2RegCompleteHandler@ptr 000A  
                                  _INTCON2bits 0FF1                     ??_I2C_DO_SEND_RESTART_READ 0001  
                        ?_INTERRUPT_Initialize 0001                       ?_rdBlkRegCompleteHandler 000A  
                    i2I2C_SetBuffer@bufferSize 0003                                     _I2C_Status 0060  
                                 ?_I2C_DO_IDLE 0001            __end_of_RealTimeClock_Get_Date_Time 171E  
                  _RealTimeClock_Get_Date_Time 16C2                                   ?_I2C_DO_RCEN 0001  
                       ?_rd2RegCompleteHandler 000A                                     _EECON1bits 0FA6  
                             ??_I2C_MasterOpen 001A                         ?_wr2RegCompleteHandler 000A  
                             ??_I2C_MasterStop 0001                               ??_I2C_Initialize 001A  
                    fp__I2C_DO_RX_NACK_RESTART 0000                                       __Hrparam 0000  
                                     __Lrparam 0000                           __end_of_I2C_DO_RESET 1ABE  
                       __end_of_Send_Date_UART 13A2                       ??_I2C_Write1ByteRegister 0025  
                      ??_OSCILLATOR_Initialize 001A                            _EUSART_ErrorHandler 0040  
                         _I2C_DO_SEND_ADR_READ 1AA2               I2C_Read1ByteRegister@returnValue 0025  
                 __end_ofi2_I2C_MasterClearIrq 1B82                       ?_EEPROM_24C02C_Read_Byte 0026  
                              _I2C_MasterClose 1B76                  I2C_SetAddressNackCallback@ptr 0021  
                              I2C_Open@address 001C                            fp__I2C_DO_SEND_STOP 0000  
                         i2I2C_SetCallback@idx 0005                                _I2C_MasterStart 1B6E  
                         i2I2C_SetCallback@ptr 0003                                _I2C_MasterWrite 1B10  
                                     __ptext10 17EA                                       __ptext11 1AE0  
                                     __ptext20 1934                                       __ptext12 1AEA  
                                     __ptext21 19D8                                       __ptext13 1AF4  
                                     __ptext30 1858                                       __ptext22 141E  
                                     __ptext14 16C2                                       __ptext31 1B72  
                                     __ptext23 126A                                       __ptext15 1A6E  
                                     __ptext40 1B18                                       __ptext32 1B76  
                                     __ptext24 1AFE                                       __ptext16 15EE  
                                     __ptext41 1B20                                       __ptext33 1B7A  
                                     __ptext25 199E                                       __ptext17 1A80  
                                     __ptext50 1A92                                       __ptext42 1B28  
                                     __ptext26 1B6A                                       __ptext18 150A  
                                     __ptext51 1AA2                                       __ptext43 1B30  
                                     __ptext35 1B58                                       __ptext27 1B10  
                                     __ptext19 19C0                                       __ptext60 1B8A  
                                     __ptext52 1ACA                                       __ptext44 1B38  
                                     __ptext36 157E                                       __ptext28 176A  
                                     __ptext61 1B8E                                       __ptext53 13A2  
                                     __ptext45 1B40                                       __ptext37 1B7E  
                                     __ptext29 1B6E                                       __ptext70 1958  
                                     __ptext62 1B92                                       __ptext54 1B82  
                                     __ptext46 1B48                                       __ptext38 165C  
                                     __ptext71 1B96                                       __ptext63 17AA  
                                     __ptext55 1A48                                       __ptext47 1ABE  
                                     __ptext39 1AB2                                       __ptext72 1B9A  
                                     __ptext64 1884                                       __ptext56 1B50  
                                     __ptext48 11C4                                       __ptext73 0000  
                                     __ptext65 18B0                                       __ptext57 1B5E  
                                     __ptext49 1100                                       __ptext66 18DC  
                                     __ptext58 1B86                                       __ptext67 1908  
                                     __ptext59 1B64                                       __ptext68 19F0  
                                     __ptext69 1494            __end_of_I2C_SetDataCompleteCallback 19D8  
               ?i2_I2C_SetDataCompleteCallback 0006                    _I2C_SetDataCompleteCallback 19C0  
                      ?_I2C_DO_RX_NACK_RESTART 0001                       __end_of_I2C_DO_SEND_STOP 1B38  
                      ?_EUSART_SetErrorHandler 001A                                _I2C_SetCallback 141E  
                ??_I2C_SetDataCompleteCallback 0023                     I2C_Write1ByteRegister@data 0024  
EUSART_SetOverrunErrorHandler@interruptHandler 001A                                       isa$xinst 0000  
                              ?_Send_Date_UART 0001                                       int$flags 0046  
                        ?_I2C_DO_SEND_ADR_READ 0001          __end_of_EUSART_SetFramingErrorHandler 1AF4  
                _EUSART_SetFramingErrorHandler 1AEA                       __end_of_I2C_MasterIsNack 1A5C  
               UART_SEND_STRING@l_sting_lenght 001E                       __end_of_I2C_MasterSetIrq 1B86  
                             ?i2_I2C_SetBuffer 0001                                     _INTCONbits 0FF2  
                       ??_INTERRUPT_Initialize 001A                 __end_of_I2C_DO_RX_NACK_RESTART 1B20  
                EEPROM_24C02C_Read_Byte@RetVal 0028                                       intlevel2 0000  
                          i2I2C_SetCallback@cb 0001                        ?_PIN_MANAGER_Initialize 0001  
               __end_of_EUSART_SetErrorHandler 1AFE                            _I2C_DO_SEND_RESTART 1B38  
                       fp__I2C_DO_ADDRESS_NACK 0000  EUSART_SetFramingErrorHandler@interruptHandler 001A  
                      __end_of_I2C_MasterClose 1B7A                __end_of_EEPROM_24C02C_Read_Byte 1A92  
                           fp__I2C_DO_TX_EMPTY 0000                        __end_of_I2C_MasterStart 1B72  
                      __end_of_I2C_MasterWrite 1B18         __end_of_INTERRUPT_InterruptManagerHigh 00B6  
               _INTERRUPT_InterruptManagerHigh 0008                           ?_I2C_DO_SEND_RESTART 0001  
                                  _SSPCON1bits 0FC6                                    _SSPCON2bits 0FC5  
                           EUSART_Write@txData 001A                        __end_of_I2C_SetCallback 1494  
               __end_of_PIN_MANAGER_Initialize 1858                  __end_of_rd1RegCompleteHandler 1908  
                             fp__I2C_DO_RX_ACK 0000             Temp_Sensor_TC74_ReadValue@TC74_Add 0026  
                __end_of_wr1RegCompleteHandler 18B0                          _MSSP_InterruptHandler 0032  
                         i2_I2C_MasterClearIrq 1B7E  
